(lp0
(dp1
S'total.listening.time'
p2
I15003
sS'transposition'
p3
S'1'
p4
sS'dir'
p5
S'fillers/'
p6
sS'experiment'
p7
S'2'
p8
sS'condition'
p9
g8
sS'chunks'
p10
(lp11
(lp12
S'fillers/1-1'
p13
aI2441
aa(lp14
S'fillers/1-2'
p15
aI1916
aa(lp16
S'fillers/1-3-2'
p17
aI2566
aa(lp18
S'fillers/1-4'
p19
aI2122
aa(lp20
S'fillers/1-5'
p21
aI2210
aa(lp22
S'fillers/1-6'
p23
aI2048
aa(lp24
S'fillers/1-7'
p25
aI1700
aasS'subject'
p26
S'ak1999'
p27
sS'type'
p28
S'filler'
p29
sS'response'
p30
S'Totally incomplete'
p31
sS'response_time'
p32
I6226
sS'pilot'
p33
S'1'
p34
sa(dp35
g2
I13560
sg3
S'4'
p36
sg5
S'chords/'
p37
sg7
g8
sg9
S'A'
p38
sg10
(lp39
(lp40
S'chords/4-1'
p41
aI2025
aa(lp42
S'chords/4-2'
p43
aI1764
aa(lp44
S'chords/4-3'
p45
aI1804
aa(lp46
S'chords/4-4'
p47
aI1671
aa(lp48
S'chords/4-5-1'
p49
aI1653
aa(lp50
S'chords/4-6'
p51
aI2929
aa(lp52
S'chords/4-7'
p53
aI1714
aasg26
g27
sg28
S'experimental_trial'
p54
sg30
S'Somewhat incomplete'
p55
sg32
I2998
sg33
g34
sa(dp56
g2
I10979
sg3
S'5'
p57
sg5
g37
sg7
g8
sg9
S'B'
p58
sg10
(lp59
(lp60
S'chords/5-1'
p61
aI1554
aa(lp62
S'chords/5-2'
p63
aI1479
aa(lp64
S'chords/5-3'
p65
aI1534
aa(lp66
S'chords/5-4'
p67
aI1626
aa(lp68
S'chords/5-5-2'
p69
aI1633
aa(lp70
S'chords/5-6'
p71
aI1644
aa(lp72
S'chords/5-7'
p73
aI1509
aasg26
g27
sg28
g54
sg30
S'Totally complete'
p74
sg32
I2216
sg33
g34
sa(dp75
g2
I10861
sg3
g57
sg5
g37
sg7
g8
sg9
g38
sg10
(lp76
(lp77
S'chords/5-1'
p78
aI1490
aa(lp79
S'chords/5-2'
p80
aI1459
aa(lp81
S'chords/5-3'
p82
aI1523
aa(lp83
S'chords/5-4'
p84
aI1513
aa(lp85
S'chords/5-5-1'
p86
aI1647
aa(lp87
S'chords/5-6'
p88
aI1551
aa(lp89
S'chords/5-7'
p90
aI1678
aasg26
g27
sg28
g54
sg30
g55
sg32
I2370
sg33
g34
sa(dp91
g2
I12839
sg3
g8
sg5
g6
sg7
g8
sg9
S'3'
p92
sg10
(lp93
(lp94
S'fillers/2-1'
p95
aI1709
aa(lp96
S'fillers/2-2'
p97
aI1661
aa(lp98
S'fillers/2-3-3'
p99
aI1852
aa(lp100
S'fillers/2-4'
p101
aI2000
aa(lp102
S'fillers/2-5'
p103
aI1783
aa(lp104
S'fillers/2-6'
p105
aI1826
aa(lp106
S'fillers/2-7'
p107
aI2008
aasg26
g27
sg28
g29
sg30
g55
sg32
I3206
sg33
g34
sa(dp108
g2
I11363
sg3
g8
sg5
g37
sg7
g8
sg9
S'C'
p109
sg10
(lp110
(lp111
S'chords/2-1'
p112
aI1647
aa(lp113
S'chords/2-2'
p114
aI1608
aa(lp115
S'chords/2-3'
p116
aI1715
aa(lp117
S'chords/2-4'
p118
aI1720
aa(lp119
S'chords/2-5-3'
p120
aI1604
aa(lp121
S'chords/2-6'
p122
aI1539
aa(lp123
S'chords/2-7'
p124
aI1530
aasg26
g27
sg28
g54
sg30
g31
sg32
I7756
sg33
g34
sa(dp125
g2
I11950
sg3
g36
sg5
g37
sg7
g8
sg9
g58
sg10
(lp126
(lp127
S'chords/4-1'
p128
aI1880
aa(lp129
S'chords/4-2'
p130
aI1652
aa(lp131
S'chords/4-3'
p132
aI1605
aa(lp133
S'chords/4-4'
p134
aI1559
aa(lp135
S'chords/4-5-2'
p136
aI1729
aa(lp137
S'chords/4-6'
p138
aI1740
aa(lp139
S'chords/4-7'
p140
aI1785
aasg26
g27
sg28
g54
sg30
g74
sg32
I2121
sg33
g34
sa(dp141
g2
I10466
sg3
g92
sg5
g6
sg7
g8
sg9
g4
sg10
(lp142
(lp143
S'fillers/3-1'
p144
aI1384
aa(lp145
S'fillers/3-2'
p146
aI1481
aa(lp147
S'fillers/3-3-1'
p148
aI1463
aa(lp149
S'fillers/3-4'
p150
aI1546
aa(lp151
S'fillers/3-5'
p152
aI1445
aa(lp153
S'fillers/3-6'
p154
aI1487
aa(lp155
S'fillers/3-7'
p156
aI1660
aasg26
g27
sg28
g29
sg30
S'Somewhat complete'
p157
sg32
I3114
sg33
g34
sa(dp158
g2
I8876
sg3
g8
sg5
g37
sg7
g8
sg9
g58
sg10
(lp159
(lp160
S'chords/2-1'
p161
aI1274
aa(lp162
S'chords/2-2'
p163
aI1235
aa(lp164
S'chords/2-3'
p165
aI1280
aa(lp166
S'chords/2-4'
p167
aI1286
aa(lp168
S'chords/2-5-2'
p169
aI1303
aa(lp170
S'chords/2-6'
p171
aI1309
aa(lp172
S'chords/2-7'
p173
aI1189
aasg26
g27
sg28
g54
sg30
g74
sg32
I1547
sg33
g34
sa(dp174
g2
I8924
sg3
g92
sg5
g37
sg7
g8
sg9
g58
sg10
(lp175
(lp176
S'chords/3-1'
p177
aI1332
aa(lp178
S'chords/3-2'
p179
aI1241
aa(lp180
S'chords/3-3'
p181
aI1232
aa(lp182
S'chords/3-4'
p183
aI1283
aa(lp184
S'chords/3-5-2'
p185
aI1255
aa(lp186
S'chords/3-6'
p187
aI1233
aa(lp188
S'chords/3-7'
p189
aI1348
aasg26
g27
sg28
g54
sg30
g74
sg32
I1582
sg33
g34
sa(dp190
g2
I8795
sg3
g8
sg5
g6
sg7
g8
sg9
g8
sg10
(lp191
(lp192
S'fillers/2-1'
p193
aI1155
aa(lp194
S'fillers/2-2'
p195
aI1230
aa(lp196
S'fillers/2-3-2'
p197
aI1230
aa(lp198
S'fillers/2-4'
p199
aI1185
aa(lp200
S'fillers/2-5'
p201
aI1258
aa(lp202
S'fillers/2-6'
p203
aI1349
aa(lp204
S'fillers/2-7'
p205
aI1388
aasg26
g27
sg28
g29
sg30
g157
sg32
I3066
sg33
g34
sa(dp206
g2
I9381
sg3
g57
sg5
g37
sg7
g8
sg9
g109
sg10
(lp207
(lp208
S'chords/5-1'
p209
aI1309
aa(lp210
S'chords/5-2'
p211
aI1362
aa(lp212
S'chords/5-3'
p213
aI1323
aa(lp214
S'chords/5-4'
p215
aI1338
aa(lp216
S'chords/5-5-3'
p217
aI1300
aa(lp218
S'chords/5-6'
p219
aI1347
aa(lp220
S'chords/5-7'
p221
aI1402
aasg26
g27
sg28
g54
sg30
g157
sg32
I2295
sg33
g34
sa(dp222
g2
I8776
sg3
g92
sg5
g6
sg7
g8
sg9
g8
sg10
(lp223
(lp224
S'fillers/3-1'
p225
aI1171
aa(lp226
S'fillers/3-2'
p227
aI1159
aa(lp228
S'fillers/3-3-2'
p229
aI1256
aa(lp230
S'fillers/3-4'
p231
aI1228
aa(lp232
S'fillers/3-5'
p233
aI1301
aa(lp234
S'fillers/3-6'
p235
aI1380
aa(lp236
S'fillers/3-7'
p237
aI1281
aasg26
g27
sg28
g29
sg30
g157
sg32
I1912
sg33
g34
sa(dp238
g2
I8329
sg3
g92
sg5
g6
sg7
g8
sg9
g92
sg10
(lp239
(lp240
S'fillers/3-1'
p241
aI1092
aa(lp242
S'fillers/3-2'
p243
aI1120
aa(lp244
S'fillers/3-3-3'
p245
aI1188
aa(lp246
S'fillers/3-4'
p247
aI1174
aa(lp248
S'fillers/3-5'
p249
aI1159
aa(lp250
S'fillers/3-6'
p251
aI1197
aa(lp252
S'fillers/3-7'
p253
aI1399
aasg26
g27
sg28
g29
sg30
g157
sg32
I1800
sg33
g34
sa(dp254
g2
I8996
sg3
S'0'
p255
sg5
g37
sg7
g8
sg9
g58
sg10
(lp256
(lp257
S'chords/0-1'
p258
aI1117
aa(lp259
S'chords/0-2'
p260
aI1156
aa(lp261
S'chords/0-3'
p262
aI1190
aa(lp263
S'chords/0-4'
p264
aI1297
aa(lp265
S'chords/0-5-2'
p266
aI1225
aa(lp267
S'chords/0-6'
p268
aI1503
aa(lp269
S'chords/0-7'
p270
aI1508
aasg26
g27
sg28
g54
sg30
g74
sg32
I1099
sg33
g34
sa(dp271
g2
I7853
sg3
g255
sg5
g37
sg7
g8
sg9
g38
sg10
(lp272
(lp273
S'chords/0-1'
p274
aI1093
aa(lp275
S'chords/0-2'
p276
aI1145
aa(lp277
S'chords/0-3'
p278
aI1084
aa(lp279
S'chords/0-4'
p280
aI1100
aa(lp281
S'chords/0-5-1'
p282
aI1089
aa(lp283
S'chords/0-6'
p284
aI1188
aa(lp285
S'chords/0-7'
p286
aI1154
aasg26
g27
sg28
g54
sg30
g157
sg32
I4192
sg33
g34
sa(dp287
g2
I9406
sg3
g8
sg5
g37
sg7
g8
sg9
g38
sg10
(lp288
(lp289
S'chords/2-1'
p290
aI1236
aa(lp291
S'chords/2-2'
p292
aI1306
aa(lp293
S'chords/2-3'
p294
aI1442
aa(lp295
S'chords/2-4'
p296
aI1409
aa(lp297
S'chords/2-5-1'
p298
aI1237
aa(lp299
S'chords/2-6'
p300
aI1297
aa(lp301
S'chords/2-7'
p302
aI1479
aasg26
g27
sg28
g54
sg30
g157
sg32
I2322
sg33
g34
sa(dp303
g2
I9149
sg3
g4
sg5
g6
sg7
g8
sg9
g4
sg10
(lp304
(lp305
S'fillers/1-1'
p306
aI1238
aa(lp307
S'fillers/1-2'
p308
aI1368
aa(lp309
S'fillers/1-3-1'
p310
aI1270
aa(lp311
S'fillers/1-4'
p312
aI1328
aa(lp313
S'fillers/1-5'
p314
aI1226
aa(lp315
S'fillers/1-6'
p316
aI1311
aa(lp317
S'fillers/1-7'
p318
aI1408
aasg26
g27
sg28
g29
sg30
g55
sg32
I2162
sg33
g34
sa(dp319
g2
I9847
sg3
g4
sg5
g6
sg7
g8
sg9
g92
sg10
(lp320
(lp321
S'fillers/1-1'
p322
aI1361
aa(lp323
S'fillers/1-2'
p324
aI1280
aa(lp325
S'fillers/1-3-3'
p326
aI1392
aa(lp327
S'fillers/1-4'
p328
aI1381
aa(lp329
S'fillers/1-5'
p330
aI1320
aa(lp331
S'fillers/1-6'
p332
aI1494
aa(lp333
S'fillers/1-7'
p334
aI1619
aasg26
g27
sg28
g29
sg30
g157
sg32
I4859
sg33
g34
sa(dp335
g2
I12971
sg3
g36
sg5
g37
sg7
g8
sg9
g109
sg10
(lp336
(lp337
S'chords/4-1'
p338
aI1367
aa(lp339
S'chords/4-2'
p340
aI3657
aa(lp341
S'chords/4-3'
p342
aI1333
aa(lp343
S'chords/4-4'
p344
aI1352
aa(lp345
S'chords/4-5-3'
p346
aI1381
aa(lp347
S'chords/4-6'
p348
aI1414
aa(lp349
S'chords/4-7'
p350
aI2467
aasg26
g27
sg28
g54
sg30
g74
sg32
I9098
sg33
g34
sa(dp351
g2
I8589
sg3
g255
sg5
g37
sg7
g8
sg9
g109
sg10
(lp352
(lp353
S'chords/0-1'
p354
aI1150
aa(lp355
S'chords/0-2'
p356
aI1255
aa(lp357
S'chords/0-3'
p358
aI1363
aa(lp359
S'chords/0-4'
p360
aI1137
aa(lp361
S'chords/0-5-3'
p362
aI1180
aa(lp363
S'chords/0-6'
p364
aI1193
aa(lp365
S'chords/0-7'
p366
aI1311
aasg26
g27
sg28
g54
sg30
g157
sg32
I1805
sg33
g34
sa(dp367
g2
I7952
sg3
g92
sg5
g37
sg7
g8
sg9
g38
sg10
(lp368
(lp369
S'chords/3-1'
p370
aI1013
aa(lp371
S'chords/3-2'
p372
aI1118
aa(lp373
S'chords/3-3'
p374
aI1035
aa(lp375
S'chords/3-4'
p376
aI1180
aa(lp377
S'chords/3-5-1'
p378
aI1314
aa(lp379
S'chords/3-6'
p380
aI1163
aa(lp381
S'chords/3-7'
p382
aI1129
aasg26
g27
sg28
g54
sg30
g55
sg32
I1861
sg33
g34
sa(dp383
g2
I6738
sg3
g92
sg5
g37
sg7
g8
sg9
g109
sg10
(lp384
(lp385
S'chords/3-1'
p386
aI962
aa(lp387
S'chords/3-2'
p388
aI888
aa(lp389
S'chords/3-3'
p390
aI984
aa(lp391
S'chords/3-4'
p392
aI910
aa(lp393
S'chords/3-5-3'
p394
aI975
aa(lp395
S'chords/3-6'
p396
aI965
aa(lp397
S'chords/3-7'
p398
aI1054
aasg26
g27
sg28
g54
sg30
g55
sg32
I2665
sg33
g34
sa(dp399
g2
I6703
sg3
g4
sg5
g37
sg7
g8
sg9
g109
sg10
(lp400
(lp401
S'chords/1-1'
p402
aI941
aa(lp403
S'chords/1-2'
p404
aI878
aa(lp405
S'chords/1-3'
p406
aI905
aa(lp407
S'chords/1-4'
p408
aI943
aa(lp409
S'chords/1-5-3'
p410
aI972
aa(lp411
S'chords/1-6'
p412
aI972
aa(lp413
S'chords/1-7'
p414
aI1092
aasg26
g27
sg28
g54
sg30
g55
sg32
I1014
sg33
g34
sa(dp415
g2
I7309
sg3
g8
sg5
g6
sg7
g8
sg9
g4
sg10
(lp416
(lp417
S'fillers/2-1'
p418
aI973
aa(lp419
S'fillers/2-2'
p420
aI939
aa(lp421
S'fillers/2-3-1'
p422
aI1039
aa(lp423
S'fillers/2-4'
p424
aI1067
aa(lp425
S'fillers/2-5'
p426
aI1107
aa(lp427
S'fillers/2-6'
p428
aI1078
aa(lp429
S'fillers/2-7'
p430
aI1106
aasg26
g27
sg28
g29
sg30
g31
sg32
I1211
sg33
g34
sa(dp431
g2
I7848
sg3
g4
sg5
g37
sg7
g8
sg9
g38
sg10
(lp432
(lp433
S'chords/1-1'
p434
aI956
aa(lp435
S'chords/1-2'
p436
aI1020
aa(lp437
S'chords/1-3'
p438
aI1052
aa(lp439
S'chords/1-4'
p440
aI1183
aa(lp441
S'chords/1-5-1'
p442
aI1207
aa(lp443
S'chords/1-6'
p444
aI1155
aa(lp445
S'chords/1-7'
p446
aI1275
aasg26
g27
sg28
g54
sg30
g157
sg32
I1399
sg33
g34
sa(dp447
g2
I9056
sg3
g4
sg5
g37
sg7
g8
sg9
g58
sg10
(lp448
(lp449
S'chords/1-1'
p450
aI1212
aa(lp451
S'chords/1-2'
p452
aI1129
aa(lp453
S'chords/1-3'
p454
aI1199
aa(lp455
S'chords/1-4'
p456
aI1176
aa(lp457
S'chords/1-5-2'
p458
aI1145
aa(lp459
S'chords/1-6'
p460
aI1296
aa(lp461
S'chords/1-7'
p462
aI1899
aasg26
g27
sg28
g54
sg30
g157
sg32
I2419
sg33
g34
sa.