(lp0
(dp1
S'total.listening.time'
p2
I14491
sS'transposition'
p3
S'3'
p4
sS'dir'
p5
S'chords/'
p6
sS'experiment'
p7
S'2'
p8
sS'condition'
p9
S'C'
p10
sS'chunks'
p11
(lp12
(lp13
S'chords/3-1'
p14
aI2682
aa(lp15
S'chords/3-2'
p16
aI2040
aa(lp17
S'chords/3-3'
p18
aI1862
aa(lp19
S'chords/3-4'
p20
aI1899
aa(lp21
S'chords/3-5-3'
p22
aI1868
aa(lp23
S'chords/3-6'
p24
aI2168
aa(lp25
S'chords/3-7'
p26
aI1972
aasS'subject'
p27
S'ca1991'
p28
sS'type'
p29
S'experimental_trial'
p30
sS'response'
p31
S'Totally incomplete'
p32
sS'response_time'
p33
I3697
sS'pilot'
p34
S'1'
p35
sa(dp36
g2
I11695
sg3
g4
sg5
S'fillers/'
p37
sg7
g8
sg9
g8
sg11
(lp38
(lp39
S'fillers/3-1'
p40
aI1678
aa(lp41
S'fillers/3-2'
p42
aI1684
aa(lp43
S'fillers/3-3-2'
p44
aI1664
aa(lp45
S'fillers/3-4'
p46
aI1643
aa(lp47
S'fillers/3-5'
p48
aI1651
aa(lp49
S'fillers/3-6'
p50
aI1722
aa(lp51
S'fillers/3-7'
p52
aI1653
aasg27
g28
sg29
S'filler'
p53
sg31
S'Somewhat complete'
p54
sg33
I4652
sg34
g35
sa(dp55
g2
I11004
sg3
S'0'
p56
sg5
g6
sg7
g8
sg9
S'B'
p57
sg11
(lp58
(lp59
S'chords/0-1'
p60
aI1727
aa(lp61
S'chords/0-2'
p62
aI1537
aa(lp63
S'chords/0-3'
p64
aI1566
aa(lp65
S'chords/0-4'
p66
aI1610
aa(lp67
S'chords/0-5-2'
p68
aI1568
aa(lp69
S'chords/0-6'
p70
aI1547
aa(lp71
S'chords/0-7'
p72
aI1449
aasg27
g28
sg29
g30
sg31
S'Totally complete'
p73
sg33
I3732
sg34
g35
sa(dp74
g2
I14569
sg3
S'5'
p75
sg5
g6
sg7
g8
sg9
S'A'
p76
sg11
(lp77
(lp78
S'chords/5-1'
p79
aI3117
aa(lp80
S'chords/5-2'
p81
aI2151
aa(lp82
S'chords/5-3'
p83
aI2049
aa(lp84
S'chords/5-4'
p85
aI1900
aa(lp86
S'chords/5-5-1'
p87
aI1821
aa(lp88
S'chords/5-6'
p89
aI1729
aa(lp90
S'chords/5-7'
p91
aI1802
aasg27
g28
sg29
g30
sg31
g54
sg33
I2742
sg34
g35
sa(dp92
g2
I11249
sg3
g4
sg5
g37
sg7
g8
sg9
S'1'
p93
sg11
(lp94
(lp95
S'fillers/3-1'
p96
aI1643
aa(lp97
S'fillers/3-2'
p98
aI1549
aa(lp99
S'fillers/3-3-1'
p100
aI1489
aa(lp101
S'fillers/3-4'
p102
aI1575
aa(lp103
S'fillers/3-5'
p104
aI1512
aa(lp105
S'fillers/3-6'
p106
aI1697
aa(lp107
S'fillers/3-7'
p108
aI1784
aasg27
g28
sg29
g53
sg31
g73
sg33
I4002
sg34
g35
sa(dp109
g2
I11561
sg3
g56
sg5
g6
sg7
g8
sg9
g76
sg11
(lp110
(lp111
S'chords/0-1'
p112
aI1649
aa(lp113
S'chords/0-2'
p114
aI1633
aa(lp115
S'chords/0-3'
p116
aI1619
aa(lp117
S'chords/0-4'
p118
aI1684
aa(lp119
S'chords/0-5-1'
p120
aI1623
aa(lp121
S'chords/0-6'
p122
aI1694
aa(lp123
S'chords/0-7'
p124
aI1659
aasg27
g28
sg29
g30
sg31
g32
sg33
I3665
sg34
g35
sa(dp125
g2
I10912
sg3
g4
sg5
g37
sg7
g8
sg9
g4
sg11
(lp126
(lp127
S'fillers/3-1'
p128
aI1543
aa(lp129
S'fillers/3-2'
p130
aI1511
aa(lp131
S'fillers/3-3-3'
p132
aI1566
aa(lp133
S'fillers/3-4'
p134
aI1570
aa(lp135
S'fillers/3-5'
p136
aI1446
aa(lp137
S'fillers/3-6'
p138
aI1670
aa(lp139
S'fillers/3-7'
p140
aI1606
aasg27
g28
sg29
g53
sg31
g73
sg33
I3940
sg34
g35
sa(dp141
g2
I11543
sg3
g75
sg5
g6
sg7
g8
sg9
g10
sg11
(lp142
(lp143
S'chords/5-1'
p144
aI1507
aa(lp145
S'chords/5-2'
p146
aI1589
aa(lp147
S'chords/5-3'
p148
aI1550
aa(lp149
S'chords/5-4'
p150
aI1550
aa(lp151
S'chords/5-5-3'
p152
aI1513
aa(lp153
S'chords/5-6'
p154
aI2174
aa(lp155
S'chords/5-7'
p156
aI1660
aasg27
g28
sg29
g30
sg31
S'Somewhat incomplete'
p157
sg33
I6533
sg34
g35
sa(dp158
g2
I10217
sg3
g4
sg5
g6
sg7
g8
sg9
g57
sg11
(lp159
(lp160
S'chords/3-1'
p161
aI1525
aa(lp162
S'chords/3-2'
p163
aI1432
aa(lp164
S'chords/3-3'
p165
aI1502
aa(lp166
S'chords/3-4'
p167
aI1514
aa(lp168
S'chords/3-5-2'
p169
aI1385
aa(lp170
S'chords/3-6'
p171
aI1482
aa(lp172
S'chords/3-7'
p173
aI1377
aasg27
g28
sg29
g30
sg31
g73
sg33
I2756
sg34
g35
sa(dp174
g2
I9908
sg3
g93
sg5
g6
sg7
g8
sg9
g57
sg11
(lp175
(lp176
S'chords/1-1'
p177
aI1447
aa(lp178
S'chords/1-2'
p179
aI1459
aa(lp180
S'chords/1-3'
p181
aI1500
aa(lp182
S'chords/1-4'
p183
aI1374
aa(lp184
S'chords/1-5-2'
p185
aI1397
aa(lp186
S'chords/1-6'
p187
aI1344
aa(lp188
S'chords/1-7'
p189
aI1387
aasg27
g28
sg29
g30
sg31
g73
sg33
I1096
sg34
g35
sa(dp190
g2
I10110
sg3
g8
sg5
g37
sg7
g8
sg9
g4
sg11
(lp191
(lp192
S'fillers/2-1'
p193
aI1443
aa(lp194
S'fillers/2-2'
p195
aI1379
aa(lp196
S'fillers/2-3-3'
p197
aI1410
aa(lp198
S'fillers/2-4'
p199
aI1437
aa(lp200
S'fillers/2-5'
p201
aI1414
aa(lp202
S'fillers/2-6'
p203
aI1494
aa(lp204
S'fillers/2-7'
p205
aI1533
aasg27
g28
sg29
g53
sg31
g54
sg33
I4929
sg34
g35
sa(dp206
g2
I10199
sg3
g4
sg5
g6
sg7
g8
sg9
g76
sg11
(lp207
(lp208
S'chords/3-1'
p209
aI1489
aa(lp210
S'chords/3-2'
p211
aI1469
aa(lp212
S'chords/3-3'
p213
aI1399
aa(lp214
S'chords/3-4'
p215
aI1457
aa(lp216
S'chords/3-5-1'
p217
aI1369
aa(lp218
S'chords/3-6'
p219
aI1451
aa(lp220
S'chords/3-7'
p221
aI1565
aasg27
g28
sg29
g30
sg31
g157
sg33
I4368
sg34
g35
sa(dp222
g2
I9236
sg3
S'4'
p223
sg5
g6
sg7
g8
sg9
g57
sg11
(lp224
(lp225
S'chords/4-1'
p226
aI1235
aa(lp227
S'chords/4-2'
p228
aI1355
aa(lp229
S'chords/4-3'
p230
aI1344
aa(lp231
S'chords/4-4'
p232
aI1291
aa(lp233
S'chords/4-5-2'
p234
aI1375
aa(lp235
S'chords/4-6'
p236
aI1354
aa(lp237
S'chords/4-7'
p238
aI1282
aasg27
g28
sg29
g30
sg31
g73
sg33
I2064
sg34
g35
sa(dp239
g2
I9441
sg3
g8
sg5
g6
sg7
g8
sg9
g76
sg11
(lp240
(lp241
S'chords/2-1'
p242
aI1380
aa(lp243
S'chords/2-2'
p244
aI1300
aa(lp245
S'chords/2-3'
p246
aI1241
aa(lp247
S'chords/2-4'
p248
aI1330
aa(lp249
S'chords/2-5-1'
p250
aI1340
aa(lp251
S'chords/2-6'
p252
aI1493
aa(lp253
S'chords/2-7'
p254
aI1357
aasg27
g28
sg29
g30
sg31
g54
sg33
I2637
sg34
g35
sa(dp255
g2
I9250
sg3
g223
sg5
g6
sg7
g8
sg9
g10
sg11
(lp256
(lp257
S'chords/4-1'
p258
aI1334
aa(lp259
S'chords/4-2'
p260
aI1235
aa(lp261
S'chords/4-3'
p262
aI1279
aa(lp263
S'chords/4-4'
p264
aI1304
aa(lp265
S'chords/4-5-3'
p266
aI1357
aa(lp267
S'chords/4-6'
p268
aI1399
aa(lp269
S'chords/4-7'
p270
aI1342
aasg27
g28
sg29
g30
sg31
g54
sg33
I6226
sg34
g35
sa(dp271
g2
I8794
sg3
g93
sg5
g37
sg7
g8
sg9
g8
sg11
(lp272
(lp273
S'fillers/1-1'
p274
aI1344
aa(lp275
S'fillers/1-2'
p276
aI1294
aa(lp277
S'fillers/1-3-2'
p278
aI1179
aa(lp279
S'fillers/1-4'
p280
aI1140
aa(lp281
S'fillers/1-5'
p282
aI1241
aa(lp283
S'fillers/1-6'
p284
aI1217
aa(lp285
S'fillers/1-7'
p286
aI1379
aasg27
g28
sg29
g53
sg31
g54
sg33
I2120
sg34
g35
sa(dp287
g2
I8561
sg3
g93
sg5
g6
sg7
g8
sg9
g76
sg11
(lp288
(lp289
S'chords/1-1'
p290
aI1294
aa(lp291
S'chords/1-2'
p292
aI1296
aa(lp293
S'chords/1-3'
p294
aI1225
aa(lp295
S'chords/1-4'
p296
aI1210
aa(lp297
S'chords/1-5-1'
p298
aI1182
aa(lp299
S'chords/1-6'
p300
aI1209
aa(lp301
S'chords/1-7'
p302
aI1145
aasg27
g28
sg29
g30
sg31
g54
sg33
I2928
sg34
g35
sa(dp303
g2
I8266
sg3
g93
sg5
g37
sg7
g8
sg9
g4
sg11
(lp304
(lp305
S'fillers/1-1'
p306
aI1184
aa(lp307
S'fillers/1-2'
p308
aI1168
aa(lp309
S'fillers/1-3-3'
p310
aI1114
aa(lp311
S'fillers/1-4'
p312
aI1142
aa(lp313
S'fillers/1-5'
p314
aI1320
aa(lp315
S'fillers/1-6'
p316
aI1167
aa(lp317
S'fillers/1-7'
p318
aI1171
aasg27
g28
sg29
g53
sg31
g73
sg33
I1622
sg34
g35
sa(dp319
g2
I7824
sg3
g93
sg5
g6
sg7
g8
sg9
g10
sg11
(lp320
(lp321
S'chords/1-1'
p322
aI1143
aa(lp323
S'chords/1-2'
p324
aI1055
aa(lp325
S'chords/1-3'
p326
aI1074
aa(lp327
S'chords/1-4'
p328
aI1112
aa(lp329
S'chords/1-5-3'
p330
aI1061
aa(lp331
S'chords/1-6'
p332
aI1140
aa(lp333
S'chords/1-7'
p334
aI1239
aasg27
g28
sg29
g30
sg31
g54
sg33
I2538
sg34
g35
sa(dp335
g2
I7458
sg3
g223
sg5
g6
sg7
g8
sg9
g76
sg11
(lp336
(lp337
S'chords/4-1'
p338
aI1114
aa(lp339
S'chords/4-2'
p340
aI1012
aa(lp341
S'chords/4-3'
p342
aI1058
aa(lp343
S'chords/4-4'
p344
aI1041
aa(lp345
S'chords/4-5-1'
p346
aI1031
aa(lp347
S'chords/4-6'
p348
aI1127
aa(lp349
S'chords/4-7'
p350
aI1075
aasg27
g28
sg29
g30
sg31
g54
sg33
I1784
sg34
g35
sa(dp351
g2
I7451
sg3
g93
sg5
g37
sg7
g8
sg9
g93
sg11
(lp352
(lp353
S'fillers/1-1'
p354
aI1050
aa(lp355
S'fillers/1-2'
p356
aI1072
aa(lp357
S'fillers/1-3-1'
p358
aI1059
aa(lp359
S'fillers/1-4'
p360
aI1049
aa(lp361
S'fillers/1-5'
p362
aI1047
aa(lp363
S'fillers/1-6'
p364
aI1079
aa(lp365
S'fillers/1-7'
p366
aI1095
aasg27
g28
sg29
g53
sg31
g73
sg33
I1856
sg34
g35
sa(dp367
g2
I7779
sg3
g56
sg5
g6
sg7
g8
sg9
g10
sg11
(lp368
(lp369
S'chords/0-1'
p370
aI1055
aa(lp371
S'chords/0-2'
p372
aI1102
aa(lp373
S'chords/0-3'
p374
aI1085
aa(lp375
S'chords/0-4'
p376
aI1043
aa(lp377
S'chords/0-5-3'
p378
aI1107
aa(lp379
S'chords/0-6'
p380
aI1280
aa(lp381
S'chords/0-7'
p382
aI1107
aasg27
g28
sg29
g30
sg31
g54
sg33
I1872
sg34
g35
sa(dp383
g2
I7493
sg3
g8
sg5
g6
sg7
g8
sg9
g57
sg11
(lp384
(lp385
S'chords/2-1'
p386
aI1122
aa(lp387
S'chords/2-2'
p388
aI1111
aa(lp389
S'chords/2-3'
p390
aI1069
aa(lp391
S'chords/2-4'
p392
aI1106
aa(lp393
S'chords/2-5-2'
p394
aI1009
aa(lp395
S'chords/2-6'
p396
aI1001
aa(lp397
S'chords/2-7'
p398
aI1075
aasg27
g28
sg29
g30
sg31
g73
sg33
I1348
sg34
g35
sa(dp399
g2
I7806
sg3
g8
sg5
g37
sg7
g8
sg9
g8
sg11
(lp400
(lp401
S'fillers/2-1'
p402
aI1098
aa(lp403
S'fillers/2-2'
p404
aI1159
aa(lp405
S'fillers/2-3-2'
p406
aI1048
aa(lp407
S'fillers/2-4'
p408
aI1040
aa(lp409
S'fillers/2-5'
p410
aI1098
aa(lp411
S'fillers/2-6'
p412
aI1096
aa(lp413
S'fillers/2-7'
p414
aI1267
aasg27
g28
sg29
g53
sg31
g73
sg33
I1388
sg34
g35
sa(dp415
g2
I7337
sg3
g75
sg5
g6
sg7
g8
sg9
g57
sg11
(lp416
(lp417
S'chords/5-1'
p418
aI1157
aa(lp419
S'chords/5-2'
p420
aI969
aa(lp421
S'chords/5-3'
p422
aI1015
aa(lp423
S'chords/5-4'
p424
aI1056
aa(lp425
S'chords/5-5-2'
p426
aI1099
aa(lp427
S'chords/5-6'
p428
aI1037
aa(lp429
S'chords/5-7'
p430
aI1004
aasg27
g28
sg29
g30
sg31
g73
sg33
I1195
sg34
g35
sa(dp431
g2
I7537
sg3
g8
sg5
g37
sg7
g8
sg9
g93
sg11
(lp432
(lp433
S'fillers/2-1'
p434
aI1107
aa(lp435
S'fillers/2-2'
p436
aI1148
aa(lp437
S'fillers/2-3-1'
p438
aI1082
aa(lp439
S'fillers/2-4'
p440
aI985
aa(lp441
S'fillers/2-5'
p442
aI1081
aa(lp443
S'fillers/2-6'
p444
aI1018
aa(lp445
S'fillers/2-7'
p446
aI1116
aasg27
g28
sg29
g53
sg31
g54
sg33
I2768
sg34
g35
sa(dp447
g2
I7079
sg3
g8
sg5
g6
sg7
g8
sg9
g10
sg11
(lp448
(lp449
S'chords/2-1'
p450
aI980
aa(lp451
S'chords/2-2'
p452
aI1077
aa(lp453
S'chords/2-3'
p454
aI1017
aa(lp455
S'chords/2-4'
p456
aI1047
aa(lp457
S'chords/2-5-3'
p458
aI937
aa(lp459
S'chords/2-6'
p460
aI1047
aa(lp461
S'chords/2-7'
p462
aI974
aasg27
g28
sg29
g30
sg31
g157
sg33
I2698
sg34
g35
sa.