(lp0
(dp1
S'total.listening.time'
p2
I22255
sS'transposition'
p3
S'1'
p4
sS'dir'
p5
S'chords/'
p6
sS'experiment'
p7
S'2'
p8
sS'condition'
p9
S'B'
p10
sS'chunks'
p11
(lp12
(lp13
S'chords/1-1'
p14
aI12331
aa(lp15
S'chords/1-2'
p16
aI3191
aa(lp17
S'chords/1-3'
p18
aI1648
aa(lp19
S'chords/1-4'
p20
aI1464
aa(lp21
S'chords/1-5-2'
p22
aI1253
aa(lp23
S'chords/1-6'
p24
aI1169
aa(lp25
S'chords/1-7'
p26
aI1199
aasS'subject'
p27
S'ct1986'
p28
sS'type'
p29
S'experimental_trial'
p30
sS'response'
p31
S'Somewhat complete'
p32
sS'response_time'
p33
I3183
sS'pilot'
p34
S'1'
p35
sa(dp36
g2
I8813
sg3
g4
sg5
g6
sg7
g8
sg9
S'C'
p37
sg11
(lp38
(lp39
S'chords/1-1'
p40
aI1827
aa(lp41
S'chords/1-2'
p42
aI1358
aa(lp43
S'chords/1-3'
p44
aI1210
aa(lp45
S'chords/1-4'
p46
aI1061
aa(lp47
S'chords/1-5-3'
p48
aI1102
aa(lp49
S'chords/1-6'
p50
aI1129
aa(lp51
S'chords/1-7'
p52
aI1126
aasg27
g28
sg29
g30
sg31
S'Somewhat incomplete'
p53
sg33
I3197
sg34
g35
sa(dp54
g2
I6774
sg3
g8
sg5
S'fillers/'
p55
sg7
g8
sg9
S'3'
p56
sg11
(lp57
(lp58
S'fillers/2-1'
p59
aI1071
aa(lp60
S'fillers/2-2'
p61
aI1064
aa(lp62
S'fillers/2-3-3'
p63
aI979
aa(lp64
S'fillers/2-4'
p65
aI982
aa(lp66
S'fillers/2-5'
p67
aI993
aa(lp68
S'fillers/2-6'
p69
aI833
aa(lp70
S'fillers/2-7'
p71
aI852
aasg27
g28
sg29
S'filler'
p72
sg31
S'Totally incomplete'
p73
sg33
I1611
sg34
g35
sa(dp74
g2
I6841
sg3
g8
sg5
g6
sg7
g8
sg9
S'A'
p75
sg11
(lp76
(lp77
S'chords/2-1'
p78
aI1043
aa(lp79
S'chords/2-2'
p80
aI1034
aa(lp81
S'chords/2-3'
p82
aI1022
aa(lp83
S'chords/2-4'
p84
aI977
aa(lp85
S'chords/2-5-1'
p86
aI933
aa(lp87
S'chords/2-6'
p88
aI939
aa(lp89
S'chords/2-7'
p90
aI893
aasg27
g28
sg29
g30
sg31
g53
sg33
I5234
sg34
g35
sa(dp91
g2
I6095
sg3
g8
sg5
g6
sg7
g8
sg9
g37
sg11
(lp92
(lp93
S'chords/2-1'
p94
aI866
aa(lp95
S'chords/2-2'
p96
aI880
aa(lp97
S'chords/2-3'
p98
aI897
aa(lp99
S'chords/2-4'
p100
aI850
aa(lp101
S'chords/2-5-3'
p102
aI884
aa(lp103
S'chords/2-6'
p104
aI860
aa(lp105
S'chords/2-7'
p106
aI858
aasg27
g28
sg29
g30
sg31
g32
sg33
I3180
sg34
g35
sa(dp107
g2
I6011
sg3
S'4'
p108
sg5
g6
sg7
g8
sg9
g75
sg11
(lp109
(lp110
S'chords/4-1'
p111
aI871
aa(lp112
S'chords/4-2'
p113
aI933
aa(lp114
S'chords/4-3'
p115
aI806
aa(lp116
S'chords/4-4'
p117
aI849
aa(lp118
S'chords/4-5-1'
p119
aI852
aa(lp120
S'chords/4-6'
p121
aI839
aa(lp122
S'chords/4-7'
p123
aI861
aasg27
g28
sg29
g30
sg31
g53
sg33
I2416
sg34
g35
sa(dp124
g2
I6381
sg3
g56
sg5
g55
sg7
g8
sg9
g56
sg11
(lp125
(lp126
S'fillers/3-1'
p127
aI1025
aa(lp128
S'fillers/3-2'
p129
aI959
aa(lp130
S'fillers/3-3-3'
p131
aI897
aa(lp132
S'fillers/3-4'
p133
aI949
aa(lp134
S'fillers/3-5'
p135
aI859
aa(lp136
S'fillers/3-6'
p137
aI867
aa(lp138
S'fillers/3-7'
p139
aI825
aasg27
g28
sg29
g72
sg31
g73
sg33
I1609
sg34
g35
sa(dp140
g2
I6248
sg3
S'0'
p141
sg5
g6
sg7
g8
sg9
g37
sg11
(lp142
(lp143
S'chords/0-1'
p144
aI907
aa(lp145
S'chords/0-2'
p146
aI914
aa(lp147
S'chords/0-3'
p148
aI997
aa(lp149
S'chords/0-4'
p150
aI887
aa(lp151
S'chords/0-5-3'
p152
aI867
aa(lp153
S'chords/0-6'
p154
aI852
aa(lp155
S'chords/0-7'
p156
aI824
aasg27
g28
sg29
g30
sg31
g32
sg33
I1783
sg34
g35
sa(dp157
g2
I5938
sg3
S'5'
p158
sg5
g6
sg7
g8
sg9
g37
sg11
(lp159
(lp160
S'chords/5-1'
p161
aI803
aa(lp162
S'chords/5-2'
p163
aI830
aa(lp164
S'chords/5-3'
p165
aI815
aa(lp166
S'chords/5-4'
p167
aI873
aa(lp168
S'chords/5-5-3'
p169
aI901
aa(lp170
S'chords/5-6'
p171
aI880
aa(lp172
S'chords/5-7'
p173
aI836
aasg27
g28
sg29
g30
sg31
g32
sg33
I3383
sg34
g35
sa(dp174
g2
I6574
sg3
g158
sg5
g6
sg7
g8
sg9
g75
sg11
(lp175
(lp176
S'chords/5-1'
p177
aI880
aa(lp178
S'chords/5-2'
p179
aI929
aa(lp180
S'chords/5-3'
p181
aI991
aa(lp182
S'chords/5-4'
p183
aI959
aa(lp184
S'chords/5-5-1'
p185
aI927
aa(lp186
S'chords/5-6'
p187
aI938
aa(lp188
S'chords/5-7'
p189
aI950
aasg27
g28
sg29
g30
sg31
S'Totally complete'
p190
sg33
I3905
sg34
g35
sa(dp191
g2
I5885
sg3
g4
sg5
g6
sg7
g8
sg9
g75
sg11
(lp192
(lp193
S'chords/1-1'
p194
aI802
aa(lp195
S'chords/1-2'
p196
aI806
aa(lp197
S'chords/1-3'
p198
aI836
aa(lp199
S'chords/1-4'
p200
aI828
aa(lp201
S'chords/1-5-1'
p202
aI835
aa(lp203
S'chords/1-6'
p204
aI904
aa(lp205
S'chords/1-7'
p206
aI874
aasg27
g28
sg29
g30
sg31
g53
sg33
I1866
sg34
g35
sa(dp207
g2
I6019
sg3
g141
sg5
g6
sg7
g8
sg9
g75
sg11
(lp208
(lp209
S'chords/0-1'
p210
aI781
aa(lp211
S'chords/0-2'
p212
aI865
aa(lp213
S'chords/0-3'
p214
aI866
aa(lp215
S'chords/0-4'
p216
aI859
aa(lp217
S'chords/0-5-1'
p218
aI914
aa(lp219
S'chords/0-6'
p220
aI919
aa(lp221
S'chords/0-7'
p222
aI815
aasg27
g28
sg29
g30
sg31
g32
sg33
I5111
sg34
g35
sa(dp223
g2
I5759
sg3
g141
sg5
g6
sg7
g8
sg9
g10
sg11
(lp224
(lp225
S'chords/0-1'
p226
aI754
aa(lp227
S'chords/0-2'
p228
aI764
aa(lp229
S'chords/0-3'
p230
aI773
aa(lp231
S'chords/0-4'
p232
aI802
aa(lp233
S'chords/0-5-2'
p234
aI866
aa(lp235
S'chords/0-6'
p236
aI917
aa(lp237
S'chords/0-7'
p238
aI883
aasg27
g28
sg29
g30
sg31
g190
sg33
I2372
sg34
g35
sa(dp239
g2
I4604
sg3
g8
sg5
g6
sg7
g8
sg9
g10
sg11
(lp240
(lp241
S'chords/2-1'
p242
aI659
aa(lp243
S'chords/2-2'
p244
aI578
aa(lp245
S'chords/2-3'
p246
aI588
aa(lp247
S'chords/2-4'
p248
aI620
aa(lp249
S'chords/2-5-2'
p250
aI715
aa(lp251
S'chords/2-6'
p252
aI726
aa(lp253
S'chords/2-7'
p254
aI718
aasg27
g28
sg29
g30
sg31
g190
sg33
I1718
sg34
g35
sa(dp255
g2
I4571
sg3
g4
sg5
g55
sg7
g8
sg9
g56
sg11
(lp256
(lp257
S'fillers/1-1'
p258
aI680
aa(lp259
S'fillers/1-2'
p260
aI602
aa(lp261
S'fillers/1-3-3'
p262
aI643
aa(lp263
S'fillers/1-4'
p264
aI664
aa(lp265
S'fillers/1-5'
p266
aI708
aa(lp267
S'fillers/1-6'
p268
aI648
aa(lp269
S'fillers/1-7'
p270
aI626
aasg27
g28
sg29
g72
sg31
g73
sg33
I1023
sg34
g35
sa(dp271
g2
I4791
sg3
g8
sg5
g55
sg7
g8
sg9
g8
sg11
(lp272
(lp273
S'fillers/2-1'
p274
aI581
aa(lp275
S'fillers/2-2'
p276
aI538
aa(lp277
S'fillers/2-3-2'
p278
aI563
aa(lp279
S'fillers/2-4'
p280
aI726
aa(lp281
S'fillers/2-5'
p282
aI770
aa(lp283
S'fillers/2-6'
p284
aI770
aa(lp285
S'fillers/2-7'
p286
aI843
aasg27
g28
sg29
g72
sg31
g53
sg33
I1602
sg34
g35
sa(dp287
g2
I5878
sg3
g108
sg5
g6
sg7
g8
sg9
g37
sg11
(lp288
(lp289
S'chords/4-1'
p290
aI770
aa(lp291
S'chords/4-2'
p292
aI859
aa(lp293
S'chords/4-3'
p294
aI830
aa(lp295
S'chords/4-4'
p296
aI879
aa(lp297
S'chords/4-5-3'
p298
aI886
aa(lp299
S'chords/4-6'
p300
aI859
aa(lp301
S'chords/4-7'
p302
aI795
aasg27
g28
sg29
g30
sg31
g32
sg33
I9873
sg34
g35
sa(dp303
g2
I5326
sg3
g4
sg5
g55
sg7
g8
sg9
g8
sg11
(lp304
(lp305
S'fillers/1-1'
p306
aI708
aa(lp307
S'fillers/1-2'
p308
aI786
aa(lp309
S'fillers/1-3-2'
p310
aI721
aa(lp311
S'fillers/1-4'
p312
aI758
aa(lp313
S'fillers/1-5'
p314
aI756
aa(lp315
S'fillers/1-6'
p316
aI788
aa(lp317
S'fillers/1-7'
p318
aI809
aasg27
g28
sg29
g72
sg31
g53
sg33
I1908
sg34
g35
sa(dp319
g2
I5078
sg3
g8
sg5
g55
sg7
g8
sg9
g4
sg11
(lp320
(lp321
S'fillers/2-1'
p322
aI653
aa(lp323
S'fillers/2-2'
p324
aI777
aa(lp325
S'fillers/2-3-1'
p326
aI716
aa(lp327
S'fillers/2-4'
p328
aI735
aa(lp329
S'fillers/2-5'
p330
aI729
aa(lp331
S'fillers/2-6'
p332
aI708
aa(lp333
S'fillers/2-7'
p334
aI760
aasg27
g28
sg29
g72
sg31
g53
sg33
I2199
sg34
g35
sa(dp335
g2
I5571
sg3
g56
sg5
g6
sg7
g8
sg9
g10
sg11
(lp336
(lp337
S'chords/3-1'
p338
aI690
aa(lp339
S'chords/3-2'
p340
aI707
aa(lp341
S'chords/3-3'
p342
aI752
aa(lp343
S'chords/3-4'
p344
aI739
aa(lp345
S'chords/3-5-2'
p346
aI836
aa(lp347
S'chords/3-6'
p348
aI1055
aa(lp349
S'chords/3-7'
p350
aI792
aasg27
g28
sg29
g30
sg31
g190
sg33
I2401
sg34
g35
sa(dp351
g2
I5007
sg3
g108
sg5
g6
sg7
g8
sg9
g10
sg11
(lp352
(lp353
S'chords/4-1'
p354
aI684
aa(lp355
S'chords/4-2'
p356
aI681
aa(lp357
S'chords/4-3'
p358
aI728
aa(lp359
S'chords/4-4'
p360
aI759
aa(lp361
S'chords/4-5-2'
p362
aI712
aa(lp363
S'chords/4-6'
p364
aI691
aa(lp365
S'chords/4-7'
p366
aI752
aasg27
g28
sg29
g30
sg31
g190
sg33
I1493
sg34
g35
sa(dp367
g2
I5421
sg3
g56
sg5
g55
sg7
g8
sg9
g8
sg11
(lp368
(lp369
S'fillers/3-1'
p370
aI708
aa(lp371
S'fillers/3-2'
p372
aI768
aa(lp373
S'fillers/3-3-2'
p374
aI757
aa(lp375
S'fillers/3-4'
p376
aI762
aa(lp377
S'fillers/3-5'
p378
aI795
aa(lp379
S'fillers/3-6'
p380
aI795
aa(lp381
S'fillers/3-7'
p382
aI836
aasg27
g28
sg29
g72
sg31
g53
sg33
I1938
sg34
g35
sa(dp383
g2
I5823
sg3
g158
sg5
g6
sg7
g8
sg9
g10
sg11
(lp384
(lp385
S'chords/5-1'
p386
aI777
aa(lp387
S'chords/5-2'
p388
aI817
aa(lp389
S'chords/5-3'
p390
aI1067
aa(lp391
S'chords/5-4'
p392
aI755
aa(lp393
S'chords/5-5-2'
p394
aI765
aa(lp395
S'chords/5-6'
p396
aI820
aa(lp397
S'chords/5-7'
p398
aI822
aasg27
g28
sg29
g30
sg31
g32
sg33
I2119
sg34
g35
sa(dp399
g2
I5870
sg3
g56
sg5
g6
sg7
g8
sg9
g75
sg11
(lp400
(lp401
S'chords/3-1'
p402
aI790
aa(lp403
S'chords/3-2'
p404
aI838
aa(lp405
S'chords/3-3'
p406
aI848
aa(lp407
S'chords/3-4'
p408
aI865
aa(lp409
S'chords/3-5-1'
p410
aI868
aa(lp411
S'chords/3-6'
p412
aI892
aa(lp413
S'chords/3-7'
p414
aI769
aasg27
g28
sg29
g30
sg31
g32
sg33
I3489
sg34
g35
sa(dp415
g2
I5156
sg3
g56
sg5
g55
sg7
g8
sg9
g4
sg11
(lp416
(lp417
S'fillers/3-1'
p418
aI715
aa(lp419
S'fillers/3-2'
p420
aI720
aa(lp421
S'fillers/3-3-1'
p422
aI806
aa(lp423
S'fillers/3-4'
p424
aI747
aa(lp425
S'fillers/3-5'
p426
aI732
aa(lp427
S'fillers/3-6'
p428
aI704
aa(lp429
S'fillers/3-7'
p430
aI732
aasg27
g28
sg29
g72
sg31
g53
sg33
I2910
sg34
g35
sa(dp431
g2
I5886
sg3
g56
sg5
g6
sg7
g8
sg9
g37
sg11
(lp432
(lp433
S'chords/3-1'
p434
aI737
aa(lp435
S'chords/3-2'
p436
aI870
aa(lp437
S'chords/3-3'
p438
aI817
aa(lp439
S'chords/3-4'
p440
aI840
aa(lp441
S'chords/3-5-3'
p442
aI838
aa(lp443
S'chords/3-6'
p444
aI850
aa(lp445
S'chords/3-7'
p446
aI934
aasg27
g28
sg29
g30
sg31
g190
sg33
I1773
sg34
g35
sa(dp447
g2
I6282
sg3
g4
sg5
g55
sg7
g8
sg9
g4
sg11
(lp448
(lp449
S'fillers/1-1'
p450
aI796
aa(lp451
S'fillers/1-2'
p452
aI948
aa(lp453
S'fillers/1-3-1'
p454
aI922
aa(lp455
S'fillers/1-4'
p456
aI955
aa(lp457
S'fillers/1-5'
p458
aI867
aa(lp459
S'fillers/1-6'
p460
aI923
aa(lp461
S'fillers/1-7'
p462
aI871
aasg27
g28
sg29
g72
sg31
g53
sg33
I3367
sg34
g35
sa.