(lp0
(dp1
S'total.listening.time'
p2
I15534
sS'transposition'
p3
S'3'
p4
sS'dir'
p5
S'chords/'
p6
sS'experiment'
p7
S'2'
p8
sS'condition'
p9
S'B'
p10
sS'chunks'
p11
(lp12
(lp13
S'chords/3-1'
p14
aI4048
aa(lp15
S'chords/3-2'
p16
aI2620
aa(lp17
S'chords/3-3'
p18
aI1928
aa(lp19
S'chords/3-4'
p20
aI1897
aa(lp21
S'chords/3-5-2'
p22
aI1979
aa(lp23
S'chords/3-6'
p24
aI1518
aa(lp25
S'chords/3-7'
p26
aI1544
aasS'subject'
p27
S'dh1990'
p28
sS'type'
p29
S'experimental_trial'
p30
sS'response'
p31
S'Totally complete'
p32
sS'response_time'
p33
I1788
sS'pilot'
p34
S'1'
p35
sa(dp36
g2
I10711
sg3
S'1'
p37
sg5
g6
sg7
g8
sg9
S'A'
p38
sg11
(lp39
(lp40
S'chords/1-1'
p41
aI1309
aa(lp42
S'chords/1-2'
p43
aI1407
aa(lp44
S'chords/1-3'
p45
aI1513
aa(lp46
S'chords/1-4'
p47
aI1511
aa(lp48
S'chords/1-5-1'
p49
aI1474
aa(lp50
S'chords/1-6'
p51
aI1975
aa(lp52
S'chords/1-7'
p53
aI1522
aasg27
g28
sg29
g30
sg31
S'Totally incomplete'
p54
sg33
I3104
sg34
g35
sa(dp55
g2
I9805
sg3
g37
sg5
g6
sg7
g8
sg9
g10
sg11
(lp56
(lp57
S'chords/1-1'
p58
aI1334
aa(lp59
S'chords/1-2'
p60
aI1408
aa(lp61
S'chords/1-3'
p62
aI1469
aa(lp63
S'chords/1-4'
p64
aI1448
aa(lp65
S'chords/1-5-2'
p66
aI1500
aa(lp67
S'chords/1-6'
p68
aI1316
aa(lp69
S'chords/1-7'
p70
aI1330
aasg27
g28
sg29
g30
sg31
g32
sg33
I2653
sg34
g35
sa(dp71
g2
I9969
sg3
g4
sg5
g6
sg7
g8
sg9
g38
sg11
(lp72
(lp73
S'chords/3-1'
p74
aI1468
aa(lp75
S'chords/3-2'
p76
aI1511
aa(lp77
S'chords/3-3'
p78
aI1494
aa(lp79
S'chords/3-4'
p80
aI1377
aa(lp81
S'chords/3-5-1'
p82
aI1354
aa(lp83
S'chords/3-6'
p84
aI1330
aa(lp85
S'chords/3-7'
p86
aI1435
aasg27
g28
sg29
g30
sg31
S'Somewhat incomplete'
p87
sg33
I3414
sg34
g35
sa(dp88
g2
I9300
sg3
S'0'
p89
sg5
g6
sg7
g8
sg9
S'C'
p90
sg11
(lp91
(lp92
S'chords/0-1'
p93
aI1309
aa(lp94
S'chords/0-2'
p95
aI1350
aa(lp96
S'chords/0-3'
p97
aI1380
aa(lp98
S'chords/0-4'
p99
aI1311
aa(lp100
S'chords/0-5-3'
p101
aI1278
aa(lp102
S'chords/0-6'
p103
aI1363
aa(lp104
S'chords/0-7'
p105
aI1309
aasg27
g28
sg29
g30
sg31
S'Somewhat complete'
p106
sg33
I2402
sg34
g35
sa(dp107
g2
I9303
sg3
g8
sg5
S'fillers/'
p108
sg7
g8
sg9
g4
sg11
(lp109
(lp110
S'fillers/2-1'
p111
aI1257
aa(lp112
S'fillers/2-2'
p113
aI1368
aa(lp114
S'fillers/2-3-3'
p115
aI1344
aa(lp116
S'fillers/2-4'
p117
aI1309
aa(lp118
S'fillers/2-5'
p119
aI1324
aa(lp120
S'fillers/2-6'
p121
aI1314
aa(lp122
S'fillers/2-7'
p123
aI1387
aasg27
g28
sg29
S'filler'
p124
sg31
g87
sg33
I2520
sg34
g35
sa(dp125
g2
I9225
sg3
g89
sg5
g6
sg7
g8
sg9
g10
sg11
(lp126
(lp127
S'chords/0-1'
p128
aI1214
aa(lp129
S'chords/0-2'
p130
aI1330
aa(lp131
S'chords/0-3'
p132
aI1344
aa(lp133
S'chords/0-4'
p134
aI1385
aa(lp135
S'chords/0-5-2'
p136
aI1312
aa(lp137
S'chords/0-6'
p138
aI1331
aa(lp139
S'chords/0-7'
p140
aI1309
aasg27
g28
sg29
g30
sg31
g32
sg33
I1579
sg34
g35
sa(dp141
g2
I8936
sg3
g8
sg5
g6
sg7
g8
sg9
g38
sg11
(lp142
(lp143
S'chords/2-1'
p144
aI1250
aa(lp145
S'chords/2-2'
p146
aI1254
aa(lp147
S'chords/2-3'
p148
aI1334
aa(lp149
S'chords/2-4'
p150
aI1234
aa(lp151
S'chords/2-5-1'
p152
aI1295
aa(lp153
S'chords/2-6'
p154
aI1298
aa(lp155
S'chords/2-7'
p156
aI1271
aasg27
g28
sg29
g30
sg31
g106
sg33
I8925
sg34
g35
sa(dp157
g2
I8763
sg3
g8
sg5
g6
sg7
g8
sg9
g10
sg11
(lp158
(lp159
S'chords/2-1'
p160
aI1232
aa(lp161
S'chords/2-2'
p162
aI1252
aa(lp163
S'chords/2-3'
p164
aI1270
aa(lp165
S'chords/2-4'
p166
aI1257
aa(lp167
S'chords/2-5-2'
p168
aI1242
aa(lp169
S'chords/2-6'
p170
aI1274
aa(lp171
S'chords/2-7'
p172
aI1236
aasg27
g28
sg29
g30
sg31
g32
sg33
I4406
sg34
g35
sa(dp173
g2
I8465
sg3
g37
sg5
g108
sg7
g8
sg9
g37
sg11
(lp174
(lp175
S'fillers/1-1'
p176
aI1245
aa(lp177
S'fillers/1-2'
p178
aI1237
aa(lp179
S'fillers/1-3-1'
p180
aI1157
aa(lp181
S'fillers/1-4'
p182
aI1153
aa(lp183
S'fillers/1-5'
p184
aI1093
aa(lp185
S'fillers/1-6'
p186
aI1182
aa(lp187
S'fillers/1-7'
p188
aI1398
aasg27
g28
sg29
g124
sg31
g87
sg33
I2217
sg34
g35
sa(dp189
g2
I8443
sg3
g4
sg5
g6
sg7
g8
sg9
g90
sg11
(lp190
(lp191
S'chords/3-1'
p192
aI1140
aa(lp193
S'chords/3-2'
p194
aI1166
aa(lp195
S'chords/3-3'
p196
aI1294
aa(lp197
S'chords/3-4'
p198
aI1220
aa(lp199
S'chords/3-5-3'
p200
aI1190
aa(lp201
S'chords/3-6'
p202
aI1163
aa(lp203
S'chords/3-7'
p204
aI1270
aasg27
g28
sg29
g30
sg31
g32
sg33
I2160
sg34
g35
sa(dp205
g2
I8781
sg3
g4
sg5
g108
sg7
g8
sg9
g8
sg11
(lp206
(lp207
S'fillers/3-1'
p208
aI1225
aa(lp209
S'fillers/3-2'
p210
aI1553
aa(lp211
S'fillers/3-3-2'
p212
aI1217
aa(lp213
S'fillers/3-4'
p214
aI1153
aa(lp215
S'fillers/3-5'
p216
aI1224
aa(lp217
S'fillers/3-6'
p218
aI1210
aa(lp219
S'fillers/3-7'
p220
aI1199
aasg27
g28
sg29
g124
sg31
g54
sg33
I1995
sg34
g35
sa(dp221
g2
I8388
sg3
g8
sg5
g108
sg7
g8
sg9
g8
sg11
(lp222
(lp223
S'fillers/2-1'
p224
aI1183
aa(lp225
S'fillers/2-2'
p226
aI1243
aa(lp227
S'fillers/2-3-2'
p228
aI1224
aa(lp229
S'fillers/2-4'
p230
aI1152
aa(lp231
S'fillers/2-5'
p232
aI1146
aa(lp233
S'fillers/2-6'
p234
aI1172
aa(lp235
S'fillers/2-7'
p236
aI1268
aasg27
g28
sg29
g124
sg31
g87
sg33
I4287
sg34
g35
sa(dp237
g2
I8162
sg3
g8
sg5
g6
sg7
g8
sg9
g90
sg11
(lp238
(lp239
S'chords/2-1'
p240
aI1131
aa(lp241
S'chords/2-2'
p242
aI1121
aa(lp243
S'chords/2-3'
p244
aI1169
aa(lp245
S'chords/2-4'
p246
aI1161
aa(lp247
S'chords/2-5-3'
p248
aI1143
aa(lp249
S'chords/2-6'
p250
aI1221
aa(lp251
S'chords/2-7'
p252
aI1216
aasg27
g28
sg29
g30
sg31
g106
sg33
I2259
sg34
g35
sa(dp253
g2
I8192
sg3
S'4'
p254
sg5
g6
sg7
g8
sg9
g38
sg11
(lp255
(lp256
S'chords/4-1'
p257
aI1084
aa(lp258
S'chords/4-2'
p259
aI1093
aa(lp260
S'chords/4-3'
p261
aI1169
aa(lp262
S'chords/4-4'
p263
aI1162
aa(lp264
S'chords/4-5-1'
p265
aI1207
aa(lp266
S'chords/4-6'
p267
aI1244
aa(lp268
S'chords/4-7'
p269
aI1233
aasg27
g28
sg29
g30
sg31
g106
sg33
I3040
sg34
g35
sa(dp270
g2
I8327
sg3
S'5'
p271
sg5
g6
sg7
g8
sg9
g10
sg11
(lp272
(lp273
S'chords/5-1'
p274
aI1175
aa(lp275
S'chords/5-2'
p276
aI1153
aa(lp277
S'chords/5-3'
p278
aI1225
aa(lp279
S'chords/5-4'
p280
aI1184
aa(lp281
S'chords/5-5-2'
p282
aI1176
aa(lp283
S'chords/5-6'
p284
aI1205
aa(lp285
S'chords/5-7'
p286
aI1209
aasg27
g28
sg29
g30
sg31
g32
sg33
I1285
sg34
g35
sa(dp287
g2
I7759
sg3
g8
sg5
g108
sg7
g8
sg9
g37
sg11
(lp288
(lp289
S'fillers/2-1'
p290
aI1136
aa(lp291
S'fillers/2-2'
p292
aI1092
aa(lp293
S'fillers/2-3-1'
p294
aI1191
aa(lp295
S'fillers/2-4'
p296
aI1038
aa(lp297
S'fillers/2-5'
p298
aI1018
aa(lp299
S'fillers/2-6'
p300
aI1087
aa(lp301
S'fillers/2-7'
p302
aI1197
aasg27
g28
sg29
g124
sg31
g87
sg33
I2417
sg34
g35
sa(dp303
g2
I7648
sg3
g4
sg5
g108
sg7
g8
sg9
g4
sg11
(lp304
(lp305
S'fillers/3-1'
p306
aI1077
aa(lp307
S'fillers/3-2'
p308
aI1054
aa(lp309
S'fillers/3-3-3'
p310
aI1094
aa(lp311
S'fillers/3-4'
p312
aI1078
aa(lp313
S'fillers/3-5'
p314
aI1018
aa(lp315
S'fillers/3-6'
p316
aI1090
aa(lp317
S'fillers/3-7'
p318
aI1237
aasg27
g28
sg29
g124
sg31
g106
sg33
I2329
sg34
g35
sa(dp319
g2
I7654
sg3
g254
sg5
g6
sg7
g8
sg9
g90
sg11
(lp320
(lp321
S'chords/4-1'
p322
aI1045
aa(lp323
S'chords/4-2'
p324
aI1036
aa(lp325
S'chords/4-3'
p326
aI1088
aa(lp327
S'chords/4-4'
p328
aI1079
aa(lp329
S'chords/4-5-3'
p330
aI1080
aa(lp331
S'chords/4-6'
p332
aI1135
aa(lp333
S'chords/4-7'
p334
aI1191
aasg27
g28
sg29
g30
sg31
g106
sg33
I1900
sg34
g35
sa(dp335
g2
I7706
sg3
g4
sg5
g108
sg7
g8
sg9
g37
sg11
(lp336
(lp337
S'fillers/3-1'
p338
aI1053
aa(lp339
S'fillers/3-2'
p340
aI1054
aa(lp341
S'fillers/3-3-1'
p342
aI1037
aa(lp343
S'fillers/3-4'
p344
aI1071
aa(lp345
S'fillers/3-5'
p346
aI1097
aa(lp347
S'fillers/3-6'
p348
aI1117
aa(lp349
S'fillers/3-7'
p350
aI1277
aasg27
g28
sg29
g124
sg31
g87
sg33
I3878
sg34
g35
sa(dp351
g2
I7497
sg3
g37
sg5
g6
sg7
g8
sg9
g90
sg11
(lp352
(lp353
S'chords/1-1'
p354
aI993
aa(lp355
S'chords/1-2'
p356
aI1004
aa(lp357
S'chords/1-3'
p358
aI1129
aa(lp359
S'chords/1-4'
p360
aI1059
aa(lp361
S'chords/1-5-3'
p362
aI1080
aa(lp363
S'chords/1-6'
p364
aI1084
aa(lp365
S'chords/1-7'
p366
aI1148
aasg27
g28
sg29
g30
sg31
g32
sg33
I1356
sg34
g35
sa(dp367
g2
I7892
sg3
g271
sg5
g6
sg7
g8
sg9
g90
sg11
(lp368
(lp369
S'chords/5-1'
p370
aI1062
aa(lp371
S'chords/5-2'
p372
aI1071
aa(lp373
S'chords/5-3'
p374
aI1175
aa(lp375
S'chords/5-4'
p376
aI1148
aa(lp377
S'chords/5-5-3'
p378
aI1157
aa(lp379
S'chords/5-6'
p380
aI1109
aa(lp381
S'chords/5-7'
p382
aI1170
aasg27
g28
sg29
g30
sg31
g32
sg33
I2287
sg34
g35
sa(dp383
g2
I7649
sg3
g37
sg5
g108
sg7
g8
sg9
g4
sg11
(lp384
(lp385
S'fillers/1-1'
p386
aI1068
aa(lp387
S'fillers/1-2'
p388
aI1083
aa(lp389
S'fillers/1-3-3'
p390
aI1090
aa(lp391
S'fillers/1-4'
p392
aI1101
aa(lp393
S'fillers/1-5'
p394
aI1142
aa(lp395
S'fillers/1-6'
p396
aI1059
aa(lp397
S'fillers/1-7'
p398
aI1106
aasg27
g28
sg29
g124
sg31
g106
sg33
I1165
sg34
g35
sa(dp399
g2
I7691
sg3
g89
sg5
g6
sg7
g8
sg9
g38
sg11
(lp400
(lp401
S'chords/0-1'
p402
aI1062
aa(lp403
S'chords/0-2'
p404
aI1086
aa(lp405
S'chords/0-3'
p406
aI1069
aa(lp407
S'chords/0-4'
p408
aI1103
aa(lp409
S'chords/0-5-1'
p410
aI1089
aa(lp411
S'chords/0-6'
p412
aI1153
aa(lp413
S'chords/0-7'
p414
aI1129
aasg27
g28
sg29
g30
sg31
g106
sg33
I2355
sg34
g35
sa(dp415
g2
I7523
sg3
g271
sg5
g6
sg7
g8
sg9
g38
sg11
(lp416
(lp417
S'chords/5-1'
p418
aI1122
aa(lp419
S'chords/5-2'
p420
aI1044
aa(lp421
S'chords/5-3'
p422
aI1060
aa(lp423
S'chords/5-4'
p424
aI1053
aa(lp425
S'chords/5-5-1'
p426
aI1046
aa(lp427
S'chords/5-6'
p428
aI1052
aa(lp429
S'chords/5-7'
p430
aI1146
aasg27
g28
sg29
g30
sg31
g106
sg33
I2702
sg34
g35
sa(dp431
g2
I7432
sg3
g37
sg5
g108
sg7
g8
sg9
g8
sg11
(lp432
(lp433
S'fillers/1-1'
p434
aI1025
aa(lp435
S'fillers/1-2'
p436
aI970
aa(lp437
S'fillers/1-3-2'
p438
aI1070
aa(lp439
S'fillers/1-4'
p440
aI1061
aa(lp441
S'fillers/1-5'
p442
aI1129
aa(lp443
S'fillers/1-6'
p444
aI1063
aa(lp445
S'fillers/1-7'
p446
aI1114
aasg27
g28
sg29
g124
sg31
g106
sg33
I2577
sg34
g35
sa(dp447
g2
I7459
sg3
g254
sg5
g6
sg7
g8
sg9
g10
sg11
(lp448
(lp449
S'chords/4-1'
p450
aI1026
aa(lp451
S'chords/4-2'
p452
aI985
aa(lp453
S'chords/4-3'
p454
aI1046
aa(lp455
S'chords/4-4'
p456
aI1039
aa(lp457
S'chords/4-5-2'
p458
aI1051
aa(lp459
S'chords/4-6'
p460
aI1139
aa(lp461
S'chords/4-7'
p462
aI1173
aasg27
g28
sg29
g30
sg31
g32
sg33
I2127
sg34
g35
sa.