(lp0
(dp1
S'total.listening.time'
p2
I19030
sS'transposition'
p3
S'0'
p4
sS'dir'
p5
S'chords/'
p6
sS'experiment'
p7
S'2'
p8
sS'condition'
p9
S'A'
p10
sS'chunks'
p11
(lp12
(lp13
S'chords/0-1'
p14
aI4497
aa(lp15
S'chords/0-2'
p16
aI2555
aa(lp17
S'chords/0-3'
p18
aI2739
aa(lp19
S'chords/0-4'
p20
aI2621
aa(lp21
S'chords/0-5-1'
p22
aI2305
aa(lp23
S'chords/0-6'
p24
aI2184
aa(lp25
S'chords/0-7'
p26
aI2129
aasS'subject'
p27
S'ec1982'
p28
sS'type'
p29
S'experimental_trial'
p30
sS'response'
p31
S'Somewhat incomplete'
p32
sS'response_time'
p33
I8204
sS'pilot'
p34
S'1'
p35
sa(dp36
g2
I9773
sg3
S'5'
p37
sg5
g6
sg7
g8
sg9
g10
sg11
(lp38
(lp39
S'chords/5-1'
p40
aI1398
aa(lp41
S'chords/5-2'
p42
aI1430
aa(lp43
S'chords/5-3'
p44
aI1368
aa(lp45
S'chords/5-4'
p46
aI1438
aa(lp47
S'chords/5-5-1'
p48
aI1355
aa(lp49
S'chords/5-6'
p50
aI1372
aa(lp51
S'chords/5-7'
p52
aI1412
aasg27
g28
sg29
g30
sg31
S'Somewhat complete'
p53
sg33
I3235
sg34
g35
sa(dp54
g2
I9012
sg3
g4
sg5
g6
sg7
g8
sg9
S'C'
p55
sg11
(lp56
(lp57
S'chords/0-1'
p58
aI1278
aa(lp59
S'chords/0-2'
p60
aI1291
aa(lp61
S'chords/0-3'
p62
aI1306
aa(lp63
S'chords/0-4'
p64
aI1314
aa(lp65
S'chords/0-5-3'
p66
aI1263
aa(lp67
S'chords/0-6'
p68
aI1295
aa(lp69
S'chords/0-7'
p70
aI1265
aasg27
g28
sg29
g30
sg31
g32
sg33
I3485
sg34
g35
sa(dp71
g2
I8765
sg3
g37
sg5
g6
sg7
g8
sg9
g55
sg11
(lp72
(lp73
S'chords/5-1'
p74
aI1241
aa(lp75
S'chords/5-2'
p76
aI1221
aa(lp77
S'chords/5-3'
p78
aI1295
aa(lp79
S'chords/5-4'
p80
aI1282
aa(lp81
S'chords/5-5-3'
p82
aI1269
aa(lp83
S'chords/5-6'
p84
aI1198
aa(lp85
S'chords/5-7'
p86
aI1259
aasg27
g28
sg29
g30
sg31
g53
sg33
I2986
sg34
g35
sa(dp87
g2
I8541
sg3
g37
sg5
g6
sg7
g8
sg9
S'B'
p88
sg11
(lp89
(lp90
S'chords/5-1'
p91
aI1232
aa(lp92
S'chords/5-2'
p93
aI1211
aa(lp94
S'chords/5-3'
p95
aI1286
aa(lp96
S'chords/5-4'
p97
aI1206
aa(lp98
S'chords/5-5-2'
p99
aI1213
aa(lp100
S'chords/5-6'
p101
aI1196
aa(lp102
S'chords/5-7'
p103
aI1197
aasg27
g28
sg29
g30
sg31
g32
sg33
I7365
sg34
g35
sa(dp104
g2
I8296
sg3
S'4'
p105
sg5
g6
sg7
g8
sg9
g55
sg11
(lp106
(lp107
S'chords/4-1'
p108
aI1115
aa(lp109
S'chords/4-2'
p110
aI1241
aa(lp111
S'chords/4-3'
p112
aI1181
aa(lp113
S'chords/4-4'
p114
aI1170
aa(lp115
S'chords/4-5-3'
p116
aI1205
aa(lp117
S'chords/4-6'
p118
aI1212
aa(lp119
S'chords/4-7'
p120
aI1172
aasg27
g28
sg29
g30
sg31
g53
sg33
I4068
sg34
g35
sa(dp121
g2
I7849
sg3
S'1'
p122
sg5
g6
sg7
g8
sg9
g88
sg11
(lp123
(lp124
S'chords/1-1'
p125
aI1194
aa(lp126
S'chords/1-2'
p127
aI1095
aa(lp128
S'chords/1-3'
p129
aI1141
aa(lp130
S'chords/1-4'
p131
aI1178
aa(lp132
S'chords/1-5-2'
p133
aI1073
aa(lp134
S'chords/1-6'
p135
aI1092
aa(lp136
S'chords/1-7'
p137
aI1076
aasg27
g28
sg29
g30
sg31
g32
sg33
I5745
sg34
g35
sa(dp138
g2
I7762
sg3
g122
sg5
g6
sg7
g8
sg9
g55
sg11
(lp139
(lp140
S'chords/1-1'
p141
aI1098
aa(lp142
S'chords/1-2'
p143
aI1141
aa(lp144
S'chords/1-3'
p145
aI1176
aa(lp146
S'chords/1-4'
p147
aI1132
aa(lp148
S'chords/1-5-3'
p149
aI1125
aa(lp150
S'chords/1-6'
p151
aI1110
aa(lp152
S'chords/1-7'
p153
aI980
aasg27
g28
sg29
g30
sg31
S'Totally incomplete'
p154
sg33
I4230
sg34
g35
sa(dp155
g2
I7731
sg3
S'3'
p156
sg5
S'fillers/'
p157
sg7
g8
sg9
g122
sg11
(lp158
(lp159
S'fillers/3-1'
p160
aI1108
aa(lp161
S'fillers/3-2'
p162
aI1090
aa(lp163
S'fillers/3-3-1'
p164
aI1108
aa(lp165
S'fillers/3-4'
p166
aI1132
aa(lp167
S'fillers/3-5'
p168
aI1112
aa(lp169
S'fillers/3-6'
p170
aI1089
aa(lp171
S'fillers/3-7'
p172
aI1092
aasg27
g28
sg29
S'filler'
p173
sg31
g154
sg33
I2984
sg34
g35
sa(dp174
g2
I7687
sg3
g8
sg5
g6
sg7
g8
sg9
g10
sg11
(lp175
(lp176
S'chords/2-1'
p177
aI1097
aa(lp178
S'chords/2-2'
p179
aI1089
aa(lp180
S'chords/2-3'
p181
aI1088
aa(lp182
S'chords/2-4'
p183
aI1093
aa(lp184
S'chords/2-5-1'
p185
aI1166
aa(lp186
S'chords/2-6'
p187
aI1129
aa(lp188
S'chords/2-7'
p189
aI1025
aasg27
g28
sg29
g30
sg31
g53
sg33
I1485
sg34
g35
sa(dp190
g2
I7192
sg3
g8
sg5
g6
sg7
g8
sg9
g88
sg11
(lp191
(lp192
S'chords/2-1'
p193
aI1058
aa(lp194
S'chords/2-2'
p195
aI1035
aa(lp196
S'chords/2-3'
p197
aI1086
aa(lp198
S'chords/2-4'
p199
aI1067
aa(lp200
S'chords/2-5-2'
p201
aI857
aa(lp202
S'chords/2-6'
p203
aI1122
aa(lp204
S'chords/2-7'
p205
aI967
aasg27
g28
sg29
g30
sg31
g53
sg33
I4749
sg34
g35
sa(dp206
g2
I7396
sg3
g122
sg5
g157
sg7
g8
sg9
g156
sg11
(lp207
(lp208
S'fillers/1-1'
p209
aI1010
aa(lp210
S'fillers/1-2'
p211
aI1035
aa(lp212
S'fillers/1-3-3'
p213
aI1048
aa(lp214
S'fillers/1-4'
p215
aI1077
aa(lp216
S'fillers/1-5'
p217
aI1098
aa(lp218
S'fillers/1-6'
p219
aI1093
aa(lp220
S'fillers/1-7'
p221
aI1035
aasg27
g28
sg29
g173
sg31
g32
sg33
I2659
sg34
g35
sa(dp222
g2
I7321
sg3
g156
sg5
g6
sg7
g8
sg9
g10
sg11
(lp223
(lp224
S'chords/3-1'
p225
aI1077
aa(lp226
S'chords/3-2'
p227
aI1028
aa(lp228
S'chords/3-3'
p229
aI1046
aa(lp230
S'chords/3-4'
p231
aI1070
aa(lp232
S'chords/3-5-1'
p233
aI1015
aa(lp234
S'chords/3-6'
p235
aI1080
aa(lp236
S'chords/3-7'
p237
aI1005
aasg27
g28
sg29
g30
sg31
g53
sg33
I2469
sg34
g35
sa(dp238
g2
I7356
sg3
g8
sg5
g157
sg7
g8
sg9
g8
sg11
(lp239
(lp240
S'fillers/2-1'
p241
aI1072
aa(lp242
S'fillers/2-2'
p243
aI950
aa(lp244
S'fillers/2-3-2'
p245
aI1019
aa(lp246
S'fillers/2-4'
p247
aI1037
aa(lp248
S'fillers/2-5'
p249
aI1082
aa(lp250
S'fillers/2-6'
p251
aI1053
aa(lp252
S'fillers/2-7'
p253
aI1143
aasg27
g28
sg29
g173
sg31
g154
sg33
I2331
sg34
g35
sa(dp254
g2
I7546
sg3
g122
sg5
g157
sg7
g8
sg9
g8
sg11
(lp255
(lp256
S'fillers/1-1'
p257
aI1097
aa(lp258
S'fillers/1-2'
p259
aI1082
aa(lp260
S'fillers/1-3-2'
p261
aI1025
aa(lp262
S'fillers/1-4'
p263
aI1072
aa(lp264
S'fillers/1-5'
p265
aI1045
aa(lp266
S'fillers/1-6'
p267
aI1076
aa(lp268
S'fillers/1-7'
p269
aI1149
aasg27
g28
sg29
g173
sg31
g154
sg33
I1537
sg34
g35
sa(dp270
g2
I7244
sg3
g156
sg5
g6
sg7
g8
sg9
g88
sg11
(lp271
(lp272
S'chords/3-1'
p273
aI1090
aa(lp274
S'chords/3-2'
p275
aI1017
aa(lp276
S'chords/3-3'
p277
aI1033
aa(lp278
S'chords/3-4'
p279
aI1004
aa(lp280
S'chords/3-5-2'
p281
aI1035
aa(lp282
S'chords/3-6'
p283
aI1075
aa(lp284
S'chords/3-7'
p285
aI990
aasg27
g28
sg29
g30
sg31
g53
sg33
I5202
sg34
g35
sa(dp286
g2
I7337
sg3
g105
sg5
g6
sg7
g8
sg9
g10
sg11
(lp287
(lp288
S'chords/4-1'
p289
aI1066
aa(lp290
S'chords/4-2'
p291
aI1055
aa(lp292
S'chords/4-3'
p293
aI1071
aa(lp294
S'chords/4-4'
p295
aI1020
aa(lp296
S'chords/4-5-1'
p297
aI1081
aa(lp298
S'chords/4-6'
p299
aI1005
aa(lp300
S'chords/4-7'
p301
aI1039
aasg27
g28
sg29
g30
sg31
g53
sg33
I6375
sg34
g35
sa(dp302
g2
I7403
sg3
g4
sg5
g6
sg7
g8
sg9
g88
sg11
(lp303
(lp304
S'chords/0-1'
p305
aI1064
aa(lp306
S'chords/0-2'
p307
aI1128
aa(lp308
S'chords/0-3'
p309
aI1022
aa(lp310
S'chords/0-4'
p311
aI1046
aa(lp312
S'chords/0-5-2'
p313
aI1134
aa(lp314
S'chords/0-6'
p315
aI1018
aa(lp316
S'chords/0-7'
p317
aI991
aasg27
g28
sg29
g30
sg31
g53
sg33
I6631
sg34
g35
sa(dp318
g2
I7192
sg3
g156
sg5
g157
sg7
g8
sg9
g156
sg11
(lp319
(lp320
S'fillers/3-1'
p321
aI1005
aa(lp322
S'fillers/3-2'
p323
aI1105
aa(lp324
S'fillers/3-3-3'
p325
aI1036
aa(lp326
S'fillers/3-4'
p327
aI931
aa(lp328
S'fillers/3-5'
p329
aI1039
aa(lp330
S'fillers/3-6'
p331
aI1035
aa(lp332
S'fillers/3-7'
p333
aI1041
aasg27
g28
sg29
g173
sg31
g154
sg33
I2245
sg34
g35
sa(dp334
g2
I7373
sg3
g122
sg5
g157
sg7
g8
sg9
g122
sg11
(lp335
(lp336
S'fillers/1-1'
p337
aI1066
aa(lp338
S'fillers/1-2'
p339
aI1030
aa(lp340
S'fillers/1-3-1'
p341
aI1017
aa(lp342
S'fillers/1-4'
p343
aI1060
aa(lp344
S'fillers/1-5'
p345
aI1031
aa(lp346
S'fillers/1-6'
p347
aI1080
aa(lp348
S'fillers/1-7'
p349
aI1089
aasg27
g28
sg29
g173
sg31
g154
sg33
I3284
sg34
g35
sa(dp350
g2
I7204
sg3
g122
sg5
g6
sg7
g8
sg9
g10
sg11
(lp351
(lp352
S'chords/1-1'
p353
aI1083
aa(lp354
S'chords/1-2'
p355
aI995
aa(lp356
S'chords/1-3'
p357
aI992
aa(lp358
S'chords/1-4'
p359
aI1013
aa(lp360
S'chords/1-5-1'
p361
aI1058
aa(lp362
S'chords/1-6'
p363
aI1068
aa(lp364
S'chords/1-7'
p365
aI995
aasg27
g28
sg29
g30
sg31
S'Totally complete'
p366
sg33
I4726
sg34
g35
sa(dp367
g2
I7292
sg3
g8
sg5
g157
sg7
g8
sg9
g156
sg11
(lp368
(lp369
S'fillers/2-1'
p370
aI1032
aa(lp371
S'fillers/2-2'
p372
aI1068
aa(lp373
S'fillers/2-3-3'
p374
aI1064
aa(lp375
S'fillers/2-4'
p376
aI1001
aa(lp377
S'fillers/2-5'
p378
aI1013
aa(lp379
S'fillers/2-6'
p380
aI1061
aa(lp381
S'fillers/2-7'
p382
aI1053
aasg27
g28
sg29
g173
sg31
g154
sg33
I4501
sg34
g35
sa(dp383
g2
I7036
sg3
g8
sg5
g6
sg7
g8
sg9
g55
sg11
(lp384
(lp385
S'chords/2-1'
p386
aI1046
aa(lp387
S'chords/2-2'
p388
aI928
aa(lp389
S'chords/2-3'
p390
aI927
aa(lp391
S'chords/2-4'
p392
aI1099
aa(lp393
S'chords/2-5-3'
p394
aI1042
aa(lp395
S'chords/2-6'
p396
aI1044
aa(lp397
S'chords/2-7'
p398
aI950
aasg27
g28
sg29
g30
sg31
g53
sg33
I5766
sg34
g35
sa(dp399
g2
I7364
sg3
g156
sg5
g157
sg7
g8
sg9
g8
sg11
(lp400
(lp401
S'fillers/3-1'
p402
aI1040
aa(lp403
S'fillers/3-2'
p404
aI1067
aa(lp405
S'fillers/3-3-2'
p406
aI1044
aa(lp407
S'fillers/3-4'
p408
aI1060
aa(lp409
S'fillers/3-5'
p410
aI1053
aa(lp411
S'fillers/3-6'
p412
aI1020
aa(lp413
S'fillers/3-7'
p414
aI1080
aasg27
g28
sg29
g173
sg31
g32
sg33
I2066
sg34
g35
sa(dp415
g2
I7430
sg3
g105
sg5
g6
sg7
g8
sg9
g88
sg11
(lp416
(lp417
S'chords/4-1'
p418
aI1083
aa(lp419
S'chords/4-2'
p420
aI1110
aa(lp421
S'chords/4-3'
p422
aI1086
aa(lp423
S'chords/4-4'
p424
aI1085
aa(lp425
S'chords/4-5-2'
p426
aI1066
aa(lp427
S'chords/4-6'
p428
aI1025
aa(lp429
S'chords/4-7'
p430
aI975
aasg27
g28
sg29
g30
sg31
g366
sg33
I2283
sg34
g35
sa(dp431
g2
I7163
sg3
g156
sg5
g6
sg7
g8
sg9
g55
sg11
(lp432
(lp433
S'chords/3-1'
p434
aI972
aa(lp435
S'chords/3-2'
p436
aI1066
aa(lp437
S'chords/3-3'
p438
aI1070
aa(lp439
S'chords/3-4'
p440
aI1089
aa(lp441
S'chords/3-5-3'
p442
aI971
aa(lp443
S'chords/3-6'
p444
aI1038
aa(lp445
S'chords/3-7'
p446
aI957
aasg27
g28
sg29
g30
sg31
g366
sg33
I5384
sg34
g35
sa(dp447
g2
I7544
sg3
g8
sg5
g157
sg7
g8
sg9
g122
sg11
(lp448
(lp449
S'fillers/2-1'
p450
aI1075
aa(lp451
S'fillers/2-2'
p452
aI1019
aa(lp453
S'fillers/2-3-1'
p454
aI1005
aa(lp455
S'fillers/2-4'
p456
aI1022
aa(lp457
S'fillers/2-5'
p458
aI1126
aa(lp459
S'fillers/2-6'
p460
aI1125
aa(lp461
S'fillers/2-7'
p462
aI1172
aasg27
g28
sg29
g173
sg31
g32
sg33
I6988
sg34
g35
sa.