(lp0
(dp1
S'total.listening.time'
p2
I0
sS'transposition'
p3
S'2'
p4
sS'dir'
p5
S'chords/'
p6
sS'experiment'
p7
g4
sS'condition'
p8
S'C'
p9
sS'chunks'
p10
(lp11
(lp12
S'chords/2-1'
p13
aI0
aa(lp14
S'chords/2-2'
p15
aI0
aa(lp16
S'chords/2-3'
p17
aI0
aa(lp18
S'chords/2-4'
p19
aI0
aa(lp20
S'chords/2-5-3'
p21
aI0
aa(lp22
S'chords/2-6'
p23
aI0
aa(lp24
S'chords/2-7'
p25
aI0
aasS'subject'
p26
S'exit'
p27
sS'type'
p28
S'experimental_trial'
p29
sS'response'
p30
S'NA'
p31
sS'response_time'
p32
g31
sS'pilot'
p33
S'exit'
p34
sa(dp35
g2
I0
sg3
S'4'
p36
sg5
g6
sg7
g4
sg8
S'A'
p37
sg10
(lp38
(lp39
S'chords/4-1'
p40
aI0
aa(lp41
S'chords/4-2'
p42
aI0
aa(lp43
S'chords/4-3'
p44
aI0
aa(lp45
S'chords/4-4'
p46
aI0
aa(lp47
S'chords/4-5-1'
p48
aI0
aa(lp49
S'chords/4-6'
p50
aI0
aa(lp51
S'chords/4-7'
p52
aI0
aasg26
g27
sg28
g29
sg30
g31
sg32
g31
sg33
g34
sa(dp53
g2
I0
sg3
S'1'
p54
sg5
g6
sg7
g4
sg8
g9
sg10
(lp55
(lp56
S'chords/1-1'
p57
aI0
aa(lp58
S'chords/1-2'
p59
aI0
aa(lp60
S'chords/1-3'
p61
aI0
aa(lp62
S'chords/1-4'
p63
aI0
aa(lp64
S'chords/1-5-3'
p65
aI0
aa(lp66
S'chords/1-6'
p67
aI0
aa(lp68
S'chords/1-7'
p69
aI0
aasg26
g27
sg28
g29
sg30
g31
sg32
g31
sg33
g34
sa(dp70
g2
I0
sg3
g54
sg5
S'fillers/'
p71
sg7
g4
sg8
S'3'
p72
sg10
(lp73
(lp74
S'fillers/1-1'
p75
aI0
aa(lp76
S'fillers/1-2'
p77
aI0
aa(lp78
S'fillers/1-3-3'
p79
aI0
aa(lp80
S'fillers/1-4'
p81
aI0
aa(lp82
S'fillers/1-5'
p83
aI0
aa(lp84
S'fillers/1-6'
p85
aI0
aa(lp86
S'fillers/1-7'
p87
aI0
aasg26
g27
sg28
S'filler'
p88
sg30
g31
sg32
g31
sg33
g34
sa(dp89
g2
I0
sg3
g72
sg5
g6
sg7
g4
sg8
g37
sg10
(lp90
(lp91
S'chords/3-1'
p92
aI0
aa(lp93
S'chords/3-2'
p94
aI0
aa(lp95
S'chords/3-3'
p96
aI0
aa(lp97
S'chords/3-4'
p98
aI0
aa(lp99
S'chords/3-5-1'
p100
aI0
aa(lp101
S'chords/3-6'
p102
aI0
aa(lp103
S'chords/3-7'
p104
aI0
aasg26
g27
sg28
g29
sg30
g31
sg32
g31
sg33
g34
sa(dp105
g2
I0
sg3
g72
sg5
g71
sg7
g4
sg8
g54
sg10
(lp106
(lp107
S'fillers/3-1'
p108
aI0
aa(lp109
S'fillers/3-2'
p110
aI0
aa(lp111
S'fillers/3-3-1'
p112
aI0
aa(lp113
S'fillers/3-4'
p114
aI0
aa(lp115
S'fillers/3-5'
p116
aI0
aa(lp117
S'fillers/3-6'
p118
aI0
aa(lp119
S'fillers/3-7'
p120
aI0
aasg26
g27
sg28
g88
sg30
g31
sg32
g31
sg33
g34
sa(dp121
g2
I0
sg3
g54
sg5
g71
sg7
g4
sg8
g4
sg10
(lp122
(lp123
S'fillers/1-1'
p124
aI0
aa(lp125
S'fillers/1-2'
p126
aI0
aa(lp127
S'fillers/1-3-2'
p128
aI0
aa(lp129
S'fillers/1-4'
p130
aI0
aa(lp131
S'fillers/1-5'
p132
aI0
aa(lp133
S'fillers/1-6'
p134
aI0
aa(lp135
S'fillers/1-7'
p136
aI0
aasg26
g27
sg28
g88
sg30
g31
sg32
g31
sg33
g34
sa(dp137
g2
I0
sg3
g72
sg5
g6
sg7
g4
sg8
g9
sg10
(lp138
(lp139
S'chords/3-1'
p140
aI0
aa(lp141
S'chords/3-2'
p142
aI0
aa(lp143
S'chords/3-3'
p144
aI0
aa(lp145
S'chords/3-4'
p146
aI0
aa(lp147
S'chords/3-5-3'
p148
aI0
aa(lp149
S'chords/3-6'
p150
aI0
aa(lp151
S'chords/3-7'
p152
aI0
aasg26
g27
sg28
g29
sg30
g31
sg32
g31
sg33
g34
sa(dp153
g2
I0
sg3
g4
sg5
g6
sg7
g4
sg8
S'B'
p154
sg10
(lp155
(lp156
S'chords/2-1'
p157
aI0
aa(lp158
S'chords/2-2'
p159
aI0
aa(lp160
S'chords/2-3'
p161
aI0
aa(lp162
S'chords/2-4'
p163
aI0
aa(lp164
S'chords/2-5-2'
p165
aI0
aa(lp166
S'chords/2-6'
p167
aI0
aa(lp168
S'chords/2-7'
p169
aI0
aasg26
g27
sg28
g29
sg30
g31
sg32
g31
sg33
g34
sa(dp170
g2
I0
sg3
g54
sg5
g6
sg7
g4
sg8
g154
sg10
(lp171
(lp172
S'chords/1-1'
p173
aI0
aa(lp174
S'chords/1-2'
p175
aI0
aa(lp176
S'chords/1-3'
p177
aI0
aa(lp178
S'chords/1-4'
p179
aI0
aa(lp180
S'chords/1-5-2'
p181
aI0
aa(lp182
S'chords/1-6'
p183
aI0
aa(lp184
S'chords/1-7'
p185
aI0
aasg26
g27
sg28
g29
sg30
g31
sg32
g31
sg33
g34
sa(dp186
g2
I0
sg3
g4
sg5
g6
sg7
g4
sg8
g37
sg10
(lp187
(lp188
S'chords/2-1'
p189
aI0
aa(lp190
S'chords/2-2'
p191
aI0
aa(lp192
S'chords/2-3'
p193
aI0
aa(lp194
S'chords/2-4'
p195
aI0
aa(lp196
S'chords/2-5-1'
p197
aI0
aa(lp198
S'chords/2-6'
p199
aI0
aa(lp200
S'chords/2-7'
p201
aI0
aasg26
g27
sg28
g29
sg30
g31
sg32
g31
sg33
g34
sa(dp202
g2
I0
sg3
S'0'
p203
sg5
g6
sg7
g4
sg8
g154
sg10
(lp204
(lp205
S'chords/0-1'
p206
aI0
aa(lp207
S'chords/0-2'
p208
aI0
aa(lp209
S'chords/0-3'
p210
aI0
aa(lp211
S'chords/0-4'
p212
aI0
aa(lp213
S'chords/0-5-2'
p214
aI0
aa(lp215
S'chords/0-6'
p216
aI0
aa(lp217
S'chords/0-7'
p218
aI0
aasg26
g27
sg28
g29
sg30
g31
sg32
g31
sg33
g34
sa(dp219
g2
I0
sg3
g36
sg5
g6
sg7
g4
sg8
g9
sg10
(lp220
(lp221
S'chords/4-1'
p222
aI0
aa(lp223
S'chords/4-2'
p224
aI0
aa(lp225
S'chords/4-3'
p226
aI0
aa(lp227
S'chords/4-4'
p228
aI0
aa(lp229
S'chords/4-5-3'
p230
aI0
aa(lp231
S'chords/4-6'
p232
aI0
aa(lp233
S'chords/4-7'
p234
aI0
aasg26
g27
sg28
g29
sg30
g31
sg32
g31
sg33
g34
sa(dp235
g2
I0
sg3
g72
sg5
g6
sg7
g4
sg8
g154
sg10
(lp236
(lp237
S'chords/3-1'
p238
aI0
aa(lp239
S'chords/3-2'
p240
aI0
aa(lp241
S'chords/3-3'
p242
aI0
aa(lp243
S'chords/3-4'
p244
aI0
aa(lp245
S'chords/3-5-2'
p246
aI0
aa(lp247
S'chords/3-6'
p248
aI0
aa(lp249
S'chords/3-7'
p250
aI0
aasg26
g27
sg28
g29
sg30
g31
sg32
g31
sg33
g34
sa(dp251
g2
I0
sg3
S'5'
p252
sg5
g6
sg7
g4
sg8
g9
sg10
(lp253
(lp254
S'chords/5-1'
p255
aI0
aa(lp256
S'chords/5-2'
p257
aI0
aa(lp258
S'chords/5-3'
p259
aI0
aa(lp260
S'chords/5-4'
p261
aI0
aa(lp262
S'chords/5-5-3'
p263
aI0
aa(lp264
S'chords/5-6'
p265
aI0
aa(lp266
S'chords/5-7'
p267
aI0
aasg26
g27
sg28
g29
sg30
g31
sg32
g31
sg33
g34
sa(dp268
g2
I0
sg3
g4
sg5
g71
sg7
g4
sg8
g4
sg10
(lp269
(lp270
S'fillers/2-1'
p271
aI0
aa(lp272
S'fillers/2-2'
p273
aI0
aa(lp274
S'fillers/2-3-2'
p275
aI0
aa(lp276
S'fillers/2-4'
p277
aI0
aa(lp278
S'fillers/2-5'
p279
aI0
aa(lp280
S'fillers/2-6'
p281
aI0
aa(lp282
S'fillers/2-7'
p283
aI0
aasg26
g27
sg28
g88
sg30
g31
sg32
g31
sg33
g34
sa(dp284
g2
I0
sg3
g54
sg5
g71
sg7
g4
sg8
g54
sg10
(lp285
(lp286
S'fillers/1-1'
p287
aI0
aa(lp288
S'fillers/1-2'
p289
aI0
aa(lp290
S'fillers/1-3-1'
p291
aI0
aa(lp292
S'fillers/1-4'
p293
aI0
aa(lp294
S'fillers/1-5'
p295
aI0
aa(lp296
S'fillers/1-6'
p297
aI0
aa(lp298
S'fillers/1-7'
p299
aI0
aasg26
g27
sg28
g88
sg30
g31
sg32
g31
sg33
g34
sa(dp300
g2
I0
sg3
g36
sg5
g6
sg7
g4
sg8
g154
sg10
(lp301
(lp302
S'chords/4-1'
p303
aI0
aa(lp304
S'chords/4-2'
p305
aI0
aa(lp306
S'chords/4-3'
p307
aI0
aa(lp308
S'chords/4-4'
p309
aI0
aa(lp310
S'chords/4-5-2'
p311
aI0
aa(lp312
S'chords/4-6'
p313
aI0
aa(lp314
S'chords/4-7'
p315
aI0
aasg26
g27
sg28
g29
sg30
g31
sg32
g31
sg33
g34
sa(dp316
g2
I0
sg3
g4
sg5
g71
sg7
g4
sg8
g72
sg10
(lp317
(lp318
S'fillers/2-1'
p319
aI0
aa(lp320
S'fillers/2-2'
p321
aI0
aa(lp322
S'fillers/2-3-3'
p323
aI0
aa(lp324
S'fillers/2-4'
p325
aI0
aa(lp326
S'fillers/2-5'
p327
aI0
aa(lp328
S'fillers/2-6'
p329
aI0
aa(lp330
S'fillers/2-7'
p331
aI0
aasg26
g27
sg28
g88
sg30
g31
sg32
g31
sg33
g34
sa(dp332
g2
I0
sg3
g252
sg5
g6
sg7
g4
sg8
g154
sg10
(lp333
(lp334
S'chords/5-1'
p335
aI0
aa(lp336
S'chords/5-2'
p337
aI0
aa(lp338
S'chords/5-3'
p339
aI0
aa(lp340
S'chords/5-4'
p341
aI0
aa(lp342
S'chords/5-5-2'
p343
aI0
aa(lp344
S'chords/5-6'
p345
aI0
aa(lp346
S'chords/5-7'
p347
aI0
aasg26
g27
sg28
g29
sg30
g31
sg32
g31
sg33
g34
sa(dp348
g2
I0
sg3
g72
sg5
g71
sg7
g4
sg8
g4
sg10
(lp349
(lp350
S'fillers/3-1'
p351
aI0
aa(lp352
S'fillers/3-2'
p353
aI0
aa(lp354
S'fillers/3-3-2'
p355
aI0
aa(lp356
S'fillers/3-4'
p357
aI0
aa(lp358
S'fillers/3-5'
p359
aI0
aa(lp360
S'fillers/3-6'
p361
aI0
aa(lp362
S'fillers/3-7'
p363
aI0
aasg26
g27
sg28
g88
sg30
g31
sg32
g31
sg33
g34
sa(dp364
g2
I0
sg3
g252
sg5
g6
sg7
g4
sg8
g37
sg10
(lp365
(lp366
S'chords/5-1'
p367
aI0
aa(lp368
S'chords/5-2'
p369
aI0
aa(lp370
S'chords/5-3'
p371
aI0
aa(lp372
S'chords/5-4'
p373
aI0
aa(lp374
S'chords/5-5-1'
p375
aI0
aa(lp376
S'chords/5-6'
p377
aI0
aa(lp378
S'chords/5-7'
p379
aI0
aasg26
g27
sg28
g29
sg30
g31
sg32
g31
sg33
g34
sa(dp380
g2
I0
sg3
g203
sg5
g6
sg7
g4
sg8
g37
sg10
(lp381
(lp382
S'chords/0-1'
p383
aI0
aa(lp384
S'chords/0-2'
p385
aI0
aa(lp386
S'chords/0-3'
p387
aI0
aa(lp388
S'chords/0-4'
p389
aI0
aa(lp390
S'chords/0-5-1'
p391
aI0
aa(lp392
S'chords/0-6'
p393
aI0
aa(lp394
S'chords/0-7'
p395
aI0
aasg26
g27
sg28
g29
sg30
g31
sg32
g31
sg33
g34
sa(dp396
g2
I0
sg3
g72
sg5
g71
sg7
g4
sg8
g72
sg10
(lp397
(lp398
S'fillers/3-1'
p399
aI0
aa(lp400
S'fillers/3-2'
p401
aI0
aa(lp402
S'fillers/3-3-3'
p403
aI0
aa(lp404
S'fillers/3-4'
p405
aI0
aa(lp406
S'fillers/3-5'
p407
aI0
aa(lp408
S'fillers/3-6'
p409
aI0
aa(lp410
S'fillers/3-7'
p411
aI0
aasg26
g27
sg28
g88
sg30
g31
sg32
g31
sg33
g34
sa(dp412
g2
I0
sg3
g4
sg5
g71
sg7
g4
sg8
g54
sg10
(lp413
(lp414
S'fillers/2-1'
p415
aI0
aa(lp416
S'fillers/2-2'
p417
aI0
aa(lp418
S'fillers/2-3-1'
p419
aI0
aa(lp420
S'fillers/2-4'
p421
aI0
aa(lp422
S'fillers/2-5'
p423
aI0
aa(lp424
S'fillers/2-6'
p425
aI0
aa(lp426
S'fillers/2-7'
p427
aI0
aasg26
g27
sg28
g88
sg30
g31
sg32
g31
sg33
g34
sa(dp428
g2
I0
sg3
g203
sg5
g6
sg7
g4
sg8
g9
sg10
(lp429
(lp430
S'chords/0-1'
p431
aI0
aa(lp432
S'chords/0-2'
p433
aI0
aa(lp434
S'chords/0-3'
p435
aI0
aa(lp436
S'chords/0-4'
p437
aI0
aa(lp438
S'chords/0-5-3'
p439
aI0
aa(lp440
S'chords/0-6'
p441
aI0
aa(lp442
S'chords/0-7'
p443
aI0
aasg26
g27
sg28
g29
sg30
g31
sg32
g31
sg33
g34
sa(dp444
g2
I0
sg3
g54
sg5
g6
sg7
g4
sg8
g37
sg10
(lp445
(lp446
S'chords/1-1'
p447
aI0
aa(lp448
S'chords/1-2'
p449
aI0
aa(lp450
S'chords/1-3'
p451
aI0
aa(lp452
S'chords/1-4'
p453
aI0
aa(lp454
S'chords/1-5-1'
p455
aI0
aa(lp456
S'chords/1-6'
p457
aI0
aa(lp458
S'chords/1-7'
p459
aI0
aasg26
g27
sg28
g29
sg30
g31
sg32
g31
sg33
g34
sa.