(lp0
(dp1
S'total.listening.time'
p2
I12197
sS'transposition'
p3
S'1'
p4
sS'dir'
p5
S'chords/'
p6
sS'experiment'
p7
S'2'
p8
sS'condition'
p9
S'B'
p10
sS'chunks'
p11
(lp12
(lp13
S'chords/1-1'
p14
aI1805
aa(lp15
S'chords/1-2'
p16
aI1608
aa(lp17
S'chords/1-3'
p18
aI1900
aa(lp19
S'chords/1-4'
p20
aI1697
aa(lp21
S'chords/1-5-2'
p22
aI1655
aa(lp23
S'chords/1-6'
p24
aI1662
aa(lp25
S'chords/1-7'
p26
aI1870
aasS'subject'
p27
S'fmtest'
p28
sS'type'
p29
S'experimental_trial'
p30
sS'response'
p31
S'Totally complete'
p32
sS'response_time'
p33
I2776
sS'pilot'
p34
S'1'
p35
sa(dp36
g2
I10133
sg3
g8
sg5
g6
sg7
g8
sg9
S'A'
p37
sg11
(lp38
(lp39
S'chords/2-1'
p40
aI1586
aa(lp41
S'chords/2-2'
p42
aI1518
aa(lp43
S'chords/2-3'
p44
aI1428
aa(lp45
S'chords/2-4'
p46
aI1448
aa(lp47
S'chords/2-5-1'
p48
aI1337
aa(lp49
S'chords/2-6'
p50
aI1397
aa(lp51
S'chords/2-7'
p52
aI1419
aasg27
g28
sg29
g30
sg31
S'Somewhat incomplete'
p53
sg33
I1790
sg34
g35
sa(dp54
g2
I9405
sg3
g4
sg5
S'fillers/'
p55
sg7
g8
sg9
g8
sg11
(lp56
(lp57
S'fillers/1-1'
p58
aI1352
aa(lp59
S'fillers/1-2'
p60
aI1372
aa(lp61
S'fillers/1-3-2'
p62
aI1266
aa(lp63
S'fillers/1-4'
p64
aI1272
aa(lp65
S'fillers/1-5'
p66
aI1241
aa(lp67
S'fillers/1-6'
p68
aI1448
aa(lp69
S'fillers/1-7'
p70
aI1454
aasg27
g28
sg29
S'filler'
p71
sg31
S'Somewhat complete'
p72
sg33
I919
sg34
g35
sa(dp73
g2
I6851
sg3
S'4'
p74
sg5
g6
sg7
g8
sg9
g10
sg11
(lp75
(lp76
S'chords/4-1'
p77
aI1154
aa(lp78
S'chords/4-2'
p79
aI1132
aa(lp80
S'chords/4-3'
p81
aI1168
aa(lp82
S'chords/4-4'
p83
aI1080
aa(lp84
S'chords/4-5-2'
p85
aI23
aa(lp86
S'chords/4-6'
p87
aI1147
aa(lp88
S'chords/4-7'
p89
aI1147
aasg27
g28
sg29
g30
sg31
g53
sg33
I1624
sg34
g35
sa(dp90
g2
I9379
sg3
g8
sg5
g6
sg7
g8
sg9
g10
sg11
(lp91
(lp92
S'chords/2-1'
p93
aI1164
aa(lp94
S'chords/2-2'
p95
aI1128
aa(lp96
S'chords/2-3'
p97
aI1122
aa(lp98
S'chords/2-4'
p99
aI1146
aa(lp100
S'chords/2-5-2'
p101
aI1247
aa(lp102
S'chords/2-6'
p103
aI1662
aa(lp104
S'chords/2-7'
p105
aI1910
aasg27
g28
sg29
g30
sg31
g32
sg33
I1943
sg34
g35
sa(dp106
g2
I8921
sg3
S'0'
p107
sg5
g6
sg7
g8
sg9
g37
sg11
(lp108
(lp109
S'chords/0-1'
p110
aI1228
aa(lp111
S'chords/0-2'
p112
aI1230
aa(lp113
S'chords/0-3'
p114
aI1338
aa(lp115
S'chords/0-4'
p116
aI1201
aa(lp117
S'chords/0-5-1'
p118
aI1160
aa(lp119
S'chords/0-6'
p120
aI1257
aa(lp121
S'chords/0-7'
p122
aI1507
aasg27
g28
sg29
g30
sg31
g53
sg33
I1693
sg34
g35
sa(dp123
g2
I8569
sg3
S'5'
p124
sg5
g6
sg7
g8
sg9
g37
sg11
(lp125
(lp126
S'chords/5-1'
p127
aI1169
aa(lp128
S'chords/5-2'
p129
aI1235
aa(lp130
S'chords/5-3'
p131
aI1173
aa(lp132
S'chords/5-4'
p133
aI1240
aa(lp134
S'chords/5-5-1'
p135
aI1302
aa(lp136
S'chords/5-6'
p137
aI1236
aa(lp138
S'chords/5-7'
p139
aI1214
aasg27
g28
sg29
g30
sg31
g53
sg33
I2236
sg34
g35
sa(dp140
g2
I8325
sg3
g74
sg5
g6
sg7
g8
sg9
g37
sg11
(lp141
(lp142
S'chords/4-1'
p143
aI1244
aa(lp144
S'chords/4-2'
p145
aI1244
aa(lp146
S'chords/4-3'
p147
aI1245
aa(lp148
S'chords/4-4'
p149
aI1162
aa(lp150
S'chords/4-5-1'
p151
aI1172
aa(lp152
S'chords/4-6'
p153
aI1118
aa(lp154
S'chords/4-7'
p155
aI1140
aasg27
g28
sg29
g30
sg31
g72
sg33
I1681
sg34
g35
sa(dp156
g2
I8250
sg3
S'3'
p157
sg5
g6
sg7
g8
sg9
g10
sg11
(lp158
(lp159
S'chords/3-1'
p160
aI1219
aa(lp161
S'chords/3-2'
p162
aI1108
aa(lp163
S'chords/3-3'
p164
aI1226
aa(lp165
S'chords/3-4'
p166
aI1229
aa(lp167
S'chords/3-5-2'
p168
aI1157
aa(lp169
S'chords/3-6'
p170
aI1150
aa(lp171
S'chords/3-7'
p172
aI1161
aasg27
g28
sg29
g30
sg31
g32
sg33
I1867
sg34
g35
sa(dp173
g2
I7859
sg3
g157
sg5
g55
sg7
g8
sg9
g4
sg11
(lp174
(lp175
S'fillers/3-1'
p176
aI1174
aa(lp177
S'fillers/3-2'
p178
aI1138
aa(lp179
S'fillers/3-3-1'
p180
aI1168
aa(lp181
S'fillers/3-4'
p182
aI1069
aa(lp183
S'fillers/3-5'
p184
aI1034
aa(lp185
S'fillers/3-6'
p186
aI1115
aa(lp187
S'fillers/3-7'
p188
aI1161
aasg27
g28
sg29
g71
sg31
g72
sg33
I1244
sg34
g35
sa(dp189
g2
I7949
sg3
g124
sg5
g6
sg7
g8
sg9
g10
sg11
(lp190
(lp191
S'chords/5-1'
p192
aI1157
aa(lp193
S'chords/5-2'
p194
aI1128
aa(lp195
S'chords/5-3'
p196
aI1269
aa(lp197
S'chords/5-4'
p198
aI1107
aa(lp199
S'chords/5-5-2'
p200
aI1046
aa(lp201
S'chords/5-6'
p202
aI1129
aa(lp203
S'chords/5-7'
p204
aI1113
aasg27
g28
sg29
g30
sg31
g32
sg33
I1615
sg34
g35
sa(dp205
g2
I7114
sg3
g74
sg5
g6
sg7
g8
sg9
S'C'
p206
sg11
(lp207
(lp208
S'chords/4-1'
p209
aI1036
aa(lp210
S'chords/4-2'
p211
aI996
aa(lp212
S'chords/4-3'
p213
aI1032
aa(lp214
S'chords/4-4'
p215
aI977
aa(lp216
S'chords/4-5-3'
p217
aI1047
aa(lp218
S'chords/4-6'
p219
aI1030
aa(lp220
S'chords/4-7'
p221
aI996
aasg27
g28
sg29
g30
sg31
g72
sg33
I1892
sg34
g35
sa(dp222
g2
I7575
sg3
g4
sg5
g55
sg7
g8
sg9
g157
sg11
(lp223
(lp224
S'fillers/1-1'
p225
aI1132
aa(lp226
S'fillers/1-2'
p227
aI1111
aa(lp228
S'fillers/1-3-3'
p229
aI1115
aa(lp230
S'fillers/1-4'
p231
aI1107
aa(lp232
S'fillers/1-5'
p233
aI1017
aa(lp234
S'fillers/1-6'
p235
aI1042
aa(lp236
S'fillers/1-7'
p237
aI1051
aasg27
g28
sg29
g71
sg31
g53
sg33
I1249
sg34
g35
sa(dp238
g2
I7392
sg3
g8
sg5
g55
sg7
g8
sg9
g8
sg11
(lp239
(lp240
S'fillers/2-1'
p241
aI1189
aa(lp242
S'fillers/2-2'
p243
aI1047
aa(lp244
S'fillers/2-3-2'
p245
aI1046
aa(lp246
S'fillers/2-4'
p247
aI1121
aa(lp248
S'fillers/2-5'
p249
aI993
aa(lp250
S'fillers/2-6'
p251
aI945
aa(lp252
S'fillers/2-7'
p253
aI1051
aasg27
g28
sg29
g71
sg31
g53
sg33
I1189
sg34
g35
sa(dp254
g2
I7308
sg3
g107
sg5
g6
sg7
g8
sg9
g206
sg11
(lp255
(lp256
S'chords/0-1'
p257
aI1045
aa(lp258
S'chords/0-2'
p259
aI1090
aa(lp260
S'chords/0-3'
p261
aI1087
aa(lp262
S'chords/0-4'
p263
aI1063
aa(lp264
S'chords/0-5-3'
p265
aI1000
aa(lp266
S'chords/0-6'
p267
aI1019
aa(lp268
S'chords/0-7'
p269
aI1004
aasg27
g28
sg29
g30
sg31
g32
sg33
I1407
sg34
g35
sa(dp270
g2
I7361
sg3
g8
sg5
g55
sg7
g8
sg9
g157
sg11
(lp271
(lp272
S'fillers/2-1'
p273
aI1033
aa(lp274
S'fillers/2-2'
p275
aI1139
aa(lp276
S'fillers/2-3-3'
p277
aI1083
aa(lp278
S'fillers/2-4'
p279
aI1074
aa(lp280
S'fillers/2-5'
p281
aI1041
aa(lp282
S'fillers/2-6'
p283
aI1021
aa(lp284
S'fillers/2-7'
p285
aI970
aasg27
g28
sg29
g71
sg31
g53
sg33
I2253
sg34
g35
sa(dp286
g2
I7578
sg3
g4
sg5
g55
sg7
g8
sg9
g4
sg11
(lp287
(lp288
S'fillers/1-1'
p289
aI1110
aa(lp290
S'fillers/1-2'
p291
aI1139
aa(lp292
S'fillers/1-3-1'
p293
aI1080
aa(lp294
S'fillers/1-4'
p295
aI1051
aa(lp296
S'fillers/1-5'
p297
aI1065
aa(lp298
S'fillers/1-6'
p299
aI1113
aa(lp300
S'fillers/1-7'
p301
aI1020
aasg27
g28
sg29
g71
sg31
g53
sg33
I1476
sg34
g35
sa(dp302
g2
I7547
sg3
g8
sg5
g55
sg7
g8
sg9
g4
sg11
(lp303
(lp304
S'fillers/2-1'
p305
aI1163
aa(lp306
S'fillers/2-2'
p307
aI1132
aa(lp308
S'fillers/2-3-1'
p309
aI1049
aa(lp310
S'fillers/2-4'
p311
aI1053
aa(lp312
S'fillers/2-5'
p313
aI1005
aa(lp314
S'fillers/2-6'
p315
aI1075
aa(lp316
S'fillers/2-7'
p317
aI1070
aasg27
g28
sg29
g71
sg31
g53
sg33
I1273
sg34
g35
sa(dp318
g2
I7626
sg3
g157
sg5
g55
sg7
g8
sg9
g8
sg11
(lp319
(lp320
S'fillers/3-1'
p321
aI1111
aa(lp322
S'fillers/3-2'
p323
aI1091
aa(lp324
S'fillers/3-3-2'
p325
aI1088
aa(lp326
S'fillers/3-4'
p327
aI1098
aa(lp328
S'fillers/3-5'
p329
aI1102
aa(lp330
S'fillers/3-6'
p331
aI1093
aa(lp332
S'fillers/3-7'
p333
aI1043
aasg27
g28
sg29
g71
sg31
g53
sg33
I1064
sg34
g35
sa(dp334
g2
I7548
sg3
g157
sg5
g6
sg7
g8
sg9
g37
sg11
(lp335
(lp336
S'chords/3-1'
p337
aI1064
aa(lp338
S'chords/3-2'
p339
aI1088
aa(lp340
S'chords/3-3'
p341
aI1058
aa(lp342
S'chords/3-4'
p343
aI945
aa(lp344
S'chords/3-5-1'
p345
aI1153
aa(lp346
S'chords/3-6'
p347
aI1133
aa(lp348
S'chords/3-7'
p349
aI1107
aasg27
g28
sg29
g30
sg31
g32
sg33
I905
sg34
g35
sa(dp350
g2
I7567
sg3
g124
sg5
g6
sg7
g8
sg9
g206
sg11
(lp351
(lp352
S'chords/5-1'
p353
aI1059
aa(lp354
S'chords/5-2'
p355
aI1067
aa(lp356
S'chords/5-3'
p357
aI1084
aa(lp358
S'chords/5-4'
p359
aI1121
aa(lp360
S'chords/5-5-3'
p361
aI1041
aa(lp362
S'chords/5-6'
p363
aI1089
aa(lp364
S'chords/5-7'
p365
aI1106
aasg27
g28
sg29
g30
sg31
g32
sg33
I1245
sg34
g35
sa(dp366
g2
I6565
sg3
g4
sg5
g6
sg7
g8
sg9
g37
sg11
(lp367
(lp368
S'chords/1-1'
p369
aI1095
aa(lp370
S'chords/1-2'
p371
aI1054
aa(lp372
S'chords/1-3'
p373
aI1069
aa(lp374
S'chords/1-4'
p375
aI1074
aa(lp376
S'chords/1-5-1'
p377
aI1083
aa(lp378
S'chords/1-6'
p379
aI21
aa(lp380
S'chords/1-7'
p381
aI1169
aasg27
g28
sg29
g30
sg31
g72
sg33
I2172
sg34
g35
sa(dp382
g2
I7242
sg3
g8
sg5
g6
sg7
g8
sg9
g206
sg11
(lp383
(lp384
S'chords/2-1'
p385
aI1022
aa(lp386
S'chords/2-2'
p387
aI1051
aa(lp388
S'chords/2-3'
p389
aI1071
aa(lp390
S'chords/2-4'
p391
aI1042
aa(lp392
S'chords/2-5-3'
p393
aI1009
aa(lp394
S'chords/2-6'
p395
aI1059
aa(lp396
S'chords/2-7'
p397
aI988
aasg27
g28
sg29
g30
sg31
g72
sg33
I628
sg34
g35
sa(dp398
g2
I7439
sg3
g4
sg5
g6
sg7
g8
sg9
g206
sg11
(lp399
(lp400
S'chords/1-1'
p401
aI1154
aa(lp402
S'chords/1-2'
p403
aI1081
aa(lp404
S'chords/1-3'
p405
aI1045
aa(lp406
S'chords/1-4'
p407
aI1075
aa(lp408
S'chords/1-5-3'
p409
aI1029
aa(lp410
S'chords/1-6'
p411
aI1101
aa(lp412
S'chords/1-7'
p413
aI954
aasg27
g28
sg29
g30
sg31
g32
sg33
I1686
sg34
g35
sa(dp414
g2
I7301
sg3
g157
sg5
g55
sg7
g8
sg9
g157
sg11
(lp415
(lp416
S'fillers/3-1'
p417
aI1099
aa(lp418
S'fillers/3-2'
p419
aI1072
aa(lp420
S'fillers/3-3-3'
p421
aI1037
aa(lp422
S'fillers/3-4'
p423
aI1024
aa(lp424
S'fillers/3-5'
p425
aI1073
aa(lp426
S'fillers/3-6'
p427
aI1020
aa(lp428
S'fillers/3-7'
p429
aI976
aasg27
g28
sg29
g71
sg31
g53
sg33
I1657
sg34
g35
sa(dp430
g2
I7655
sg3
g107
sg5
g6
sg7
g8
sg9
g10
sg11
(lp431
(lp432
S'chords/0-1'
p433
aI1066
aa(lp434
S'chords/0-2'
p435
aI1050
aa(lp436
S'chords/0-3'
p437
aI1253
aa(lp438
S'chords/0-4'
p439
aI1155
aa(lp440
S'chords/0-5-2'
p441
aI1034
aa(lp442
S'chords/0-6'
p443
aI1032
aa(lp444
S'chords/0-7'
p445
aI1065
aasg27
g28
sg29
g30
sg31
g72
sg33
I8997
sg34
g35
sa(dp446
g2
I7544
sg3
g157
sg5
g6
sg7
g8
sg9
g206
sg11
(lp447
(lp448
S'chords/3-1'
p449
aI1126
aa(lp450
S'chords/3-2'
p451
aI1117
aa(lp452
S'chords/3-3'
p453
aI1041
aa(lp454
S'chords/3-4'
p455
aI1164
aa(lp456
S'chords/3-5-3'
p457
aI1007
aa(lp458
S'chords/3-6'
p459
aI1015
aa(lp460
S'chords/3-7'
p461
aI1074
aasg27
g28
sg29
g30
sg31
g32
sg33
I1298
sg34
g35
sa.