(lp0
(dp1
S'total.listening.time'
p2
I18862
sS'transposition'
p3
S'5'
p4
sS'dir'
p5
S'chords/'
p6
sS'experiment'
p7
S'2'
p8
sS'condition'
p9
S'B'
p10
sS'chunks'
p11
(lp12
(lp13
S'chords/5-1'
p14
aI3168
aa(lp15
S'chords/5-2'
p16
aI2979
aa(lp17
S'chords/5-3'
p18
aI2679
aa(lp19
S'chords/5-4'
p20
aI2708
aa(lp21
S'chords/5-5-2'
p22
aI2457
aa(lp23
S'chords/5-6'
p24
aI2253
aa(lp25
S'chords/5-7'
p26
aI2618
aasS'subject'
p27
S'jw1983'
p28
sS'type'
p29
S'experimental_trial'
p30
sS'response'
p31
S'Totally complete'
p32
sS'response_time'
p33
I2971
sS'pilot'
p34
S'1'
p35
sa(dp36
g2
I18964
sg3
S'1'
p37
sg5
S'fillers/'
p38
sg7
g8
sg9
g8
sg11
(lp39
(lp40
S'fillers/1-1'
p41
aI2900
aa(lp42
S'fillers/1-2'
p43
aI2676
aa(lp44
S'fillers/1-3-2'
p45
aI2600
aa(lp46
S'fillers/1-4'
p47
aI2723
aa(lp48
S'fillers/1-5'
p49
aI2633
aa(lp50
S'fillers/1-6'
p51
aI2631
aa(lp52
S'fillers/1-7'
p53
aI2801
aasg27
g28
sg29
S'filler'
p54
sg31
g32
sg33
I3114
sg34
g35
sa(dp55
g2
I19389
sg3
S'3'
p56
sg5
g38
sg7
g8
sg9
g8
sg11
(lp57
(lp58
S'fillers/3-1'
p59
aI2569
aa(lp60
S'fillers/3-2'
p61
aI2883
aa(lp62
S'fillers/3-3-2'
p63
aI2856
aa(lp64
S'fillers/3-4'
p65
aI2900
aa(lp66
S'fillers/3-5'
p67
aI2771
aa(lp68
S'fillers/3-6'
p69
aI2640
aa(lp70
S'fillers/3-7'
p71
aI2770
aasg27
g28
sg29
g54
sg31
S'Somewhat complete'
p72
sg33
I3234
sg34
g35
sa(dp73
g2
I19772
sg3
g4
sg5
g6
sg7
g8
sg9
S'C'
p74
sg11
(lp75
(lp76
S'chords/5-1'
p77
aI2548
aa(lp78
S'chords/5-2'
p79
aI2255
aa(lp80
S'chords/5-3'
p81
aI4137
aa(lp82
S'chords/5-4'
p83
aI2827
aa(lp84
S'chords/5-5-3'
p85
aI2797
aa(lp86
S'chords/5-6'
p87
aI2567
aa(lp88
S'chords/5-7'
p89
aI2641
aasg27
g28
sg29
g30
sg31
g32
sg33
I1705
sg34
g35
sa(dp90
g2
I18956
sg3
g8
sg5
g6
sg7
g8
sg9
g10
sg11
(lp91
(lp92
S'chords/2-1'
p93
aI2614
aa(lp94
S'chords/2-2'
p95
aI2594
aa(lp96
S'chords/2-3'
p97
aI2868
aa(lp98
S'chords/2-4'
p99
aI2708
aa(lp100
S'chords/2-5-2'
p101
aI2725
aa(lp102
S'chords/2-6'
p103
aI2788
aa(lp104
S'chords/2-7'
p105
aI2659
aasg27
g28
sg29
g30
sg31
g32
sg33
I1619
sg34
g35
sa(dp106
g2
I18461
sg3
g37
sg5
g38
sg7
g8
sg9
g37
sg11
(lp107
(lp108
S'fillers/1-1'
p109
aI2750
aa(lp110
S'fillers/1-2'
p111
aI2730
aa(lp112
S'fillers/1-3-1'
p113
aI2592
aa(lp114
S'fillers/1-4'
p115
aI2584
aa(lp116
S'fillers/1-5'
p117
aI2598
aa(lp118
S'fillers/1-6'
p119
aI2551
aa(lp120
S'fillers/1-7'
p121
aI2656
aasg27
g28
sg29
g54
sg31
g72
sg33
I2338
sg34
g35
sa(dp122
g2
I17186
sg3
g4
sg5
g6
sg7
g8
sg9
S'A'
p123
sg11
(lp124
(lp125
S'chords/5-1'
p126
aI2496
aa(lp127
S'chords/5-2'
p128
aI2493
aa(lp129
S'chords/5-3'
p130
aI2435
aa(lp131
S'chords/5-4'
p132
aI2503
aa(lp133
S'chords/5-5-1'
p134
aI2327
aa(lp135
S'chords/5-6'
p136
aI2389
aa(lp137
S'chords/5-7'
p138
aI2543
aasg27
g28
sg29
g30
sg31
g32
sg33
I3317
sg34
g35
sa(dp139
g2
I17498
sg3
g8
sg5
g38
sg7
g8
sg9
g8
sg11
(lp140
(lp141
S'fillers/2-1'
p142
aI2388
aa(lp143
S'fillers/2-2'
p144
aI2511
aa(lp145
S'fillers/2-3-2'
p146
aI2504
aa(lp147
S'fillers/2-4'
p148
aI2609
aa(lp149
S'fillers/2-5'
p150
aI2513
aa(lp151
S'fillers/2-6'
p152
aI2564
aa(lp153
S'fillers/2-7'
p154
aI2409
aasg27
g28
sg29
g54
sg31
g72
sg33
I4586
sg34
g35
sa(dp155
g2
I17454
sg3
S'4'
p156
sg5
g6
sg7
g8
sg9
g74
sg11
(lp157
(lp158
S'chords/4-1'
p159
aI2325
aa(lp160
S'chords/4-2'
p161
aI2444
aa(lp162
S'chords/4-3'
p163
aI2318
aa(lp164
S'chords/4-4'
p165
aI2495
aa(lp166
S'chords/4-5-3'
p167
aI2544
aa(lp168
S'chords/4-6'
p169
aI2499
aa(lp170
S'chords/4-7'
p171
aI2829
aasg27
g28
sg29
g30
sg31
g32
sg33
I1774
sg34
g35
sa(dp172
g2
I15846
sg3
g8
sg5
g38
sg7
g8
sg9
g37
sg11
(lp173
(lp174
S'fillers/2-1'
p175
aI2241
aa(lp176
S'fillers/2-2'
p177
aI2236
aa(lp178
S'fillers/2-3-1'
p179
aI2182
aa(lp180
S'fillers/2-4'
p181
aI2134
aa(lp182
S'fillers/2-5'
p183
aI2292
aa(lp184
S'fillers/2-6'
p185
aI2421
aa(lp186
S'fillers/2-7'
p187
aI2340
aasg27
g28
sg29
g54
sg31
g32
sg33
I1358
sg34
g35
sa(dp188
g2
I13787
sg3
g56
sg5
g6
sg7
g8
sg9
g74
sg11
(lp189
(lp190
S'chords/3-1'
p191
aI2045
aa(lp192
S'chords/3-2'
p193
aI2102
aa(lp194
S'chords/3-3'
p195
aI1893
aa(lp196
S'chords/3-4'
p197
aI1859
aa(lp198
S'chords/3-5-3'
p199
aI1968
aa(lp200
S'chords/3-6'
p201
aI1814
aa(lp202
S'chords/3-7'
p203
aI2106
aasg27
g28
sg29
g30
sg31
g32
sg33
I1466
sg34
g35
sa(dp204
g2
I15049
sg3
g56
sg5
g6
sg7
g8
sg9
g10
sg11
(lp205
(lp206
S'chords/3-1'
p207
aI2064
aa(lp208
S'chords/3-2'
p209
aI2116
aa(lp210
S'chords/3-3'
p211
aI2127
aa(lp212
S'chords/3-4'
p213
aI2148
aa(lp214
S'chords/3-5-2'
p215
aI2099
aa(lp216
S'chords/3-6'
p217
aI2038
aa(lp218
S'chords/3-7'
p219
aI2457
aasg27
g28
sg29
g30
sg31
g32
sg33
I1167
sg34
g35
sa(dp220
g2
I17169
sg3
S'0'
p221
sg5
g6
sg7
g8
sg9
g10
sg11
(lp222
(lp223
S'chords/0-1'
p224
aI2453
aa(lp225
S'chords/0-2'
p226
aI2362
aa(lp227
S'chords/0-3'
p228
aI2559
aa(lp229
S'chords/0-4'
p230
aI2375
aa(lp231
S'chords/0-5-2'
p232
aI2404
aa(lp233
S'chords/0-6'
p234
aI2375
aa(lp235
S'chords/0-7'
p236
aI2641
aasg27
g28
sg29
g30
sg31
g32
sg33
I1079
sg34
g35
sa(dp237
g2
I17075
sg3
g37
sg5
g6
sg7
g8
sg9
g10
sg11
(lp238
(lp239
S'chords/1-1'
p240
aI2218
aa(lp241
S'chords/1-2'
p242
aI1997
aa(lp243
S'chords/1-3'
p244
aI2108
aa(lp245
S'chords/1-4'
p246
aI2181
aa(lp247
S'chords/1-5-2'
p248
aI4739
aa(lp249
S'chords/1-6'
p250
aI2170
aa(lp251
S'chords/1-7'
p252
aI1662
aasg27
g28
sg29
g30
sg31
g32
sg33
I2206
sg34
g35
sa(dp253
g2
I16221
sg3
g8
sg5
g38
sg7
g8
sg9
g56
sg11
(lp254
(lp255
S'fillers/2-1'
p256
aI2283
aa(lp257
S'fillers/2-2'
p258
aI2493
aa(lp259
S'fillers/2-3-3'
p260
aI2347
aa(lp261
S'fillers/2-4'
p262
aI2167
aa(lp263
S'fillers/2-5'
p264
aI2251
aa(lp265
S'fillers/2-6'
p266
aI1774
aa(lp267
S'fillers/2-7'
p268
aI2906
aasg27
g28
sg29
g54
sg31
g72
sg33
I5445
sg34
g35
sa(dp269
g2
I8559
sg3
g56
sg5
g38
sg7
g8
sg9
g56
sg11
(lp270
(lp271
S'fillers/3-1'
p272
aI254
aa(lp273
S'fillers/3-2'
p274
aI1245
aa(lp275
S'fillers/3-3-3'
p276
aI982
aa(lp277
S'fillers/3-4'
p278
aI1310
aa(lp279
S'fillers/3-5'
p280
aI1309
aa(lp281
S'fillers/3-6'
p282
aI1708
aa(lp283
S'fillers/3-7'
p284
aI1751
aasg27
g28
sg29
g54
sg31
g32
sg33
I1603
sg34
g35
sa(dp285
g2
I13548
sg3
g37
sg5
g6
sg7
g8
sg9
g74
sg11
(lp286
(lp287
S'chords/1-1'
p288
aI1804
aa(lp289
S'chords/1-2'
p290
aI1761
aa(lp291
S'chords/1-3'
p292
aI1884
aa(lp293
S'chords/1-4'
p294
aI1958
aa(lp295
S'chords/1-5-3'
p296
aI2033
aa(lp297
S'chords/1-6'
p298
aI1993
aa(lp299
S'chords/1-7'
p300
aI2115
aasg27
g28
sg29
g30
sg31
g32
sg33
I1417
sg34
g35
sa(dp301
g2
I10086
sg3
g156
sg5
g6
sg7
g8
sg9
g10
sg11
(lp302
(lp303
S'chords/4-1'
p304
aI2077
aa(lp305
S'chords/4-2'
p306
aI1113
aa(lp307
S'chords/4-3'
p308
aI1239
aa(lp309
S'chords/4-4'
p310
aI1238
aa(lp311
S'chords/4-5-2'
p312
aI1445
aa(lp313
S'chords/4-6'
p314
aI1407
aa(lp315
S'chords/4-7'
p316
aI1567
aasg27
g28
sg29
g30
sg31
g32
sg33
I1245
sg34
g35
sa(dp317
g2
I11975
sg3
g56
sg5
g6
sg7
g8
sg9
g123
sg11
(lp318
(lp319
S'chords/3-1'
p320
aI1665
aa(lp321
S'chords/3-2'
p322
aI1464
aa(lp323
S'chords/3-3'
p324
aI1602
aa(lp325
S'chords/3-4'
p326
aI1628
aa(lp327
S'chords/3-5-1'
p328
aI1779
aa(lp329
S'chords/3-6'
p330
aI1885
aa(lp331
S'chords/3-7'
p332
aI1952
aasg27
g28
sg29
g30
sg31
g32
sg33
I1036
sg34
g35
sa(dp333
g2
I12100
sg3
g37
sg5
g6
sg7
g8
sg9
g123
sg11
(lp334
(lp335
S'chords/1-1'
p336
aI1764
aa(lp337
S'chords/1-2'
p338
aI1604
aa(lp339
S'chords/1-3'
p340
aI1648
aa(lp341
S'chords/1-4'
p342
aI1658
aa(lp343
S'chords/1-5-1'
p344
aI1627
aa(lp345
S'chords/1-6'
p346
aI1775
aa(lp347
S'chords/1-7'
p348
aI2024
aasg27
g28
sg29
g30
sg31
g32
sg33
I971
sg34
g35
sa(dp349
g2
I10528
sg3
g8
sg5
g6
sg7
g8
sg9
g74
sg11
(lp350
(lp351
S'chords/2-1'
p352
aI1229
aa(lp353
S'chords/2-2'
p354
aI1277
aa(lp355
S'chords/2-3'
p356
aI1349
aa(lp357
S'chords/2-4'
p358
aI1377
aa(lp359
S'chords/2-5-3'
p360
aI1460
aa(lp361
S'chords/2-6'
p362
aI1559
aa(lp363
S'chords/2-7'
p364
aI2277
aasg27
g28
sg29
g30
sg31
g32
sg33
I1028
sg34
g35
sa(dp365
g2
I11176
sg3
g56
sg5
g38
sg7
g8
sg9
g37
sg11
(lp366
(lp367
S'fillers/3-1'
p368
aI1245
aa(lp369
S'fillers/3-2'
p370
aI1442
aa(lp371
S'fillers/3-3-1'
p372
aI1457
aa(lp373
S'fillers/3-4'
p374
aI1487
aa(lp375
S'fillers/3-5'
p376
aI1481
aa(lp377
S'fillers/3-6'
p378
aI1622
aa(lp379
S'fillers/3-7'
p380
aI2442
aasg27
g28
sg29
g54
sg31
g72
sg33
I1176
sg34
g35
sa(dp381
g2
I11362
sg3
g221
sg5
g6
sg7
g8
sg9
g74
sg11
(lp382
(lp383
S'chords/0-1'
p384
aI1457
aa(lp385
S'chords/0-2'
p386
aI1448
aa(lp387
S'chords/0-3'
p388
aI1573
aa(lp389
S'chords/0-4'
p390
aI1599
aa(lp391
S'chords/0-5-3'
p392
aI1651
aa(lp393
S'chords/0-6'
p394
aI1597
aa(lp395
S'chords/0-7'
p396
aI2037
aasg27
g28
sg29
g30
sg31
g32
sg33
I1230
sg34
g35
sa(dp397
g2
I11112
sg3
g8
sg5
g6
sg7
g8
sg9
g123
sg11
(lp398
(lp399
S'chords/2-1'
p400
aI1522
aa(lp401
S'chords/2-2'
p402
aI1496
aa(lp403
S'chords/2-3'
p404
aI1530
aa(lp405
S'chords/2-4'
p406
aI1539
aa(lp407
S'chords/2-5-1'
p408
aI1556
aa(lp409
S'chords/2-6'
p410
aI1601
aa(lp411
S'chords/2-7'
p412
aI1868
aasg27
g28
sg29
g30
sg31
g32
sg33
I1212
sg34
g35
sa(dp413
g2
I14778
sg3
g221
sg5
g6
sg7
g8
sg9
g123
sg11
(lp414
(lp415
S'chords/0-1'
p416
aI4809
aa(lp417
S'chords/0-2'
p418
aI1528
aa(lp419
S'chords/0-3'
p420
aI1630
aa(lp421
S'chords/0-4'
p422
aI1698
aa(lp423
S'chords/0-5-1'
p424
aI1536
aa(lp425
S'chords/0-6'
p426
aI1724
aa(lp427
S'chords/0-7'
p428
aI1853
aasg27
g28
sg29
g30
sg31
g32
sg33
I2642
sg34
g35
sa(dp429
g2
I14406
sg3
g156
sg5
g6
sg7
g8
sg9
g123
sg11
(lp430
(lp431
S'chords/4-1'
p432
aI1905
aa(lp433
S'chords/4-2'
p434
aI1972
aa(lp435
S'chords/4-3'
p436
aI1936
aa(lp437
S'chords/4-4'
p438
aI1915
aa(lp439
S'chords/4-5-1'
p440
aI2141
aa(lp441
S'chords/4-6'
p442
aI2164
aa(lp443
S'chords/4-7'
p444
aI2373
aasg27
g28
sg29
g30
sg31
g32
sg33
I4154
sg34
g35
sa(dp445
g2
I13690
sg3
g37
sg5
g38
sg7
g8
sg9
g56
sg11
(lp446
(lp447
S'fillers/1-1'
p448
aI1763
aa(lp449
S'fillers/1-2'
p450
aI1704
aa(lp451
S'fillers/1-3-3'
p452
aI1808
aa(lp453
S'fillers/1-4'
p454
aI1872
aa(lp455
S'fillers/1-5'
p456
aI1807
aa(lp457
S'fillers/1-6'
p458
aI1718
aa(lp459
S'fillers/1-7'
p460
aI3018
aasg27
g28
sg29
g54
sg31
g72
sg33
I1220
sg34
g35
sa.