(lp0
(dp1
S'total.listening.time'
p2
I5318
sS'transposition'
p3
S'4'
p4
sS'dir'
p5
S'chords/'
p6
sS'experiment'
p7
S'2'
p8
sS'condition'
p9
S'B'
p10
sS'chunks'
p11
(lp12
(lp13
S'chords/4-1'
p14
aI1077
aa(lp15
S'chords/4-2'
p16
aI663
aa(lp17
S'chords/4-3'
p18
aI622
aa(lp19
S'chords/4-4'
p20
aI595
aa(lp21
S'chords/4-5-2'
p22
aI612
aa(lp23
S'chords/4-6'
p24
aI1089
aa(lp25
S'chords/4-7'
p26
aI660
aasS'subject'
p27
S'kp1987'
p28
sS'type'
p29
S'experimental_trial'
p30
sS'response'
p31
S'Somewhat incomplete'
p32
sS'response_time'
p33
I4214
sS'pilot'
p34
S'1'
p35
sa(dp36
g2
I6642
sg3
g8
sg5
S'fillers/'
p37
sg7
g8
sg9
S'1'
p38
sg11
(lp39
(lp40
S'fillers/2-1'
p41
aI834
aa(lp42
S'fillers/2-2'
p43
aI855
aa(lp44
S'fillers/2-3-1'
p45
aI951
aa(lp46
S'fillers/2-4'
p47
aI944
aa(lp48
S'fillers/2-5'
p49
aI1002
aa(lp50
S'fillers/2-6'
p51
aI1065
aa(lp52
S'fillers/2-7'
p53
aI991
aasg27
g28
sg29
S'filler'
p54
sg31
S'Totally incomplete'
p55
sg33
I4306
sg34
g35
sa(dp56
g2
I7165
sg3
g4
sg5
g6
sg7
g8
sg9
S'C'
p57
sg11
(lp58
(lp59
S'chords/4-1'
p60
aI1026
aa(lp61
S'chords/4-2'
p62
aI1001
aa(lp63
S'chords/4-3'
p64
aI1010
aa(lp65
S'chords/4-4'
p66
aI977
aa(lp67
S'chords/4-5-3'
p68
aI1066
aa(lp69
S'chords/4-6'
p70
aI1050
aa(lp71
S'chords/4-7'
p72
aI1035
aasg27
g28
sg29
g30
sg31
g32
sg33
I2402
sg34
g35
sa(dp73
g2
I9092
sg3
S'0'
p74
sg5
g6
sg7
g8
sg9
g10
sg11
(lp75
(lp76
S'chords/0-1'
p77
aI1362
aa(lp78
S'chords/0-2'
p79
aI1270
aa(lp80
S'chords/0-3'
p81
aI1239
aa(lp82
S'chords/0-4'
p83
aI1249
aa(lp84
S'chords/0-5-2'
p85
aI1264
aa(lp86
S'chords/0-6'
p87
aI1438
aa(lp88
S'chords/0-7'
p89
aI1270
aasg27
g28
sg29
g30
sg31
S'Totally complete'
p90
sg33
I4157
sg34
g35
sa(dp91
g2
I6958
sg3
S'5'
p92
sg5
g6
sg7
g8
sg9
g57
sg11
(lp93
(lp94
S'chords/5-1'
p95
aI990
aa(lp96
S'chords/5-2'
p97
aI1000
aa(lp98
S'chords/5-3'
p99
aI994
aa(lp100
S'chords/5-4'
p101
aI977
aa(lp102
S'chords/5-5-3'
p103
aI1125
aa(lp104
S'chords/5-6'
p105
aI969
aa(lp106
S'chords/5-7'
p107
aI903
aasg27
g28
sg29
g30
sg31
g32
sg33
I2313
sg34
g35
sa(dp108
g2
I6041
sg3
g38
sg5
g37
sg7
g8
sg9
S'3'
p109
sg11
(lp110
(lp111
S'fillers/1-1'
p112
aI774
aa(lp113
S'fillers/1-2'
p114
aI713
aa(lp115
S'fillers/1-3-3'
p116
aI808
aa(lp117
S'fillers/1-4'
p118
aI908
aa(lp119
S'fillers/1-5'
p120
aI923
aa(lp121
S'fillers/1-6'
p122
aI981
aa(lp123
S'fillers/1-7'
p124
aI934
aasg27
g28
sg29
g54
sg31
g55
sg33
I10194
sg34
g35
sa(dp125
g2
I7551
sg3
g109
sg5
g37
sg7
g8
sg9
g8
sg11
(lp126
(lp127
S'fillers/3-1'
p128
aI1076
aa(lp129
S'fillers/3-2'
p130
aI997
aa(lp131
S'fillers/3-3-2'
p132
aI1055
aa(lp133
S'fillers/3-4'
p134
aI1056
aa(lp135
S'fillers/3-5'
p136
aI1097
aa(lp137
S'fillers/3-6'
p138
aI1143
aa(lp139
S'fillers/3-7'
p140
aI1127
aasg27
g28
sg29
g54
sg31
S'Somewhat complete'
p141
sg33
I2868
sg34
g35
sa(dp142
g2
I8377
sg3
g74
sg5
g6
sg7
g8
sg9
g57
sg11
(lp143
(lp144
S'chords/0-1'
p145
aI1247
aa(lp146
S'chords/0-2'
p147
aI1227
aa(lp148
S'chords/0-3'
p149
aI1203
aa(lp150
S'chords/0-4'
p151
aI1188
aa(lp152
S'chords/0-5-3'
p153
aI1217
aa(lp154
S'chords/0-6'
p155
aI1163
aa(lp156
S'chords/0-7'
p157
aI1132
aasg27
g28
sg29
g30
sg31
g32
sg33
I3117
sg34
g35
sa(dp158
g2
I8921
sg3
g8
sg5
g37
sg7
g8
sg9
g109
sg11
(lp159
(lp160
S'fillers/2-1'
p161
aI1368
aa(lp162
S'fillers/2-2'
p163
aI1133
aa(lp164
S'fillers/2-3-3'
p165
aI1185
aa(lp166
S'fillers/2-4'
p167
aI1347
aa(lp168
S'fillers/2-5'
p169
aI1331
aa(lp170
S'fillers/2-6'
p171
aI1215
aa(lp172
S'fillers/2-7'
p173
aI1342
aasg27
g28
sg29
g54
sg31
g32
sg33
I3678
sg34
g35
sa(dp174
g2
I8894
sg3
g92
sg5
g6
sg7
g8
sg9
g10
sg11
(lp175
(lp176
S'chords/5-1'
p177
aI1294
aa(lp178
S'chords/5-2'
p179
aI1297
aa(lp180
S'chords/5-3'
p181
aI1206
aa(lp182
S'chords/5-4'
p183
aI1155
aa(lp184
S'chords/5-5-2'
p185
aI1509
aa(lp186
S'chords/5-6'
p187
aI1198
aa(lp188
S'chords/5-7'
p189
aI1235
aasg27
g28
sg29
g30
sg31
g141
sg33
I3322
sg34
g35
sa(dp190
g2
I8762
sg3
g8
sg5
g6
sg7
g8
sg9
g57
sg11
(lp191
(lp192
S'chords/2-1'
p193
aI1205
aa(lp194
S'chords/2-2'
p195
aI1135
aa(lp196
S'chords/2-3'
p197
aI1076
aa(lp198
S'chords/2-4'
p199
aI1116
aa(lp200
S'chords/2-5-3'
p201
aI1391
aa(lp202
S'chords/2-6'
p203
aI1329
aa(lp204
S'chords/2-7'
p205
aI1510
aasg27
g28
sg29
g30
sg31
g90
sg33
I2172
sg34
g35
sa(dp206
g2
I8896
sg3
g109
sg5
g37
sg7
g8
sg9
g109
sg11
(lp207
(lp208
S'fillers/3-1'
p209
aI1102
aa(lp210
S'fillers/3-2'
p211
aI1161
aa(lp212
S'fillers/3-3-3'
p213
aI1425
aa(lp214
S'fillers/3-4'
p215
aI1349
aa(lp216
S'fillers/3-5'
p217
aI1237
aa(lp218
S'fillers/3-6'
p219
aI1292
aa(lp220
S'fillers/3-7'
p221
aI1330
aasg27
g28
sg29
g54
sg31
g32
sg33
I2403
sg34
g35
sa(dp222
g2
I8786
sg3
g38
sg5
g37
sg7
g8
sg9
g38
sg11
(lp223
(lp224
S'fillers/1-1'
p225
aI1322
aa(lp226
S'fillers/1-2'
p227
aI1154
aa(lp228
S'fillers/1-3-1'
p229
aI1206
aa(lp230
S'fillers/1-4'
p231
aI1212
aa(lp232
S'fillers/1-5'
p233
aI1277
aa(lp234
S'fillers/1-6'
p235
aI1330
aa(lp236
S'fillers/1-7'
p237
aI1285
aasg27
g28
sg29
g54
sg31
g32
sg33
I4526
sg34
g35
sa(dp238
g2
I7531
sg3
g38
sg5
g6
sg7
g8
sg9
g57
sg11
(lp239
(lp240
S'chords/1-1'
p241
aI1085
aa(lp242
S'chords/1-2'
p243
aI1024
aa(lp244
S'chords/1-3'
p245
aI1040
aa(lp246
S'chords/1-4'
p247
aI1032
aa(lp248
S'chords/1-5-3'
p249
aI1060
aa(lp250
S'chords/1-6'
p251
aI1166
aa(lp252
S'chords/1-7'
p253
aI1124
aasg27
g28
sg29
g30
sg31
g141
sg33
I2099
sg34
g35
sa(dp254
g2
I6601
sg3
g109
sg5
g6
sg7
g8
sg9
g57
sg11
(lp255
(lp256
S'chords/3-1'
p257
aI1003
aa(lp258
S'chords/3-2'
p259
aI890
aa(lp260
S'chords/3-3'
p261
aI897
aa(lp262
S'chords/3-4'
p263
aI964
aa(lp264
S'chords/3-5-3'
p265
aI958
aa(lp266
S'chords/3-6'
p267
aI922
aa(lp268
S'chords/3-7'
p269
aI967
aasg27
g28
sg29
g30
sg31
g141
sg33
I1897
sg34
g35
sa(dp270
g2
I5905
sg3
g38
sg5
g37
sg7
g8
sg9
g8
sg11
(lp271
(lp272
S'fillers/1-1'
p273
aI801
aa(lp274
S'fillers/1-2'
p275
aI813
aa(lp276
S'fillers/1-3-2'
p277
aI861
aa(lp278
S'fillers/1-4'
p279
aI860
aa(lp280
S'fillers/1-5'
p281
aI849
aa(lp282
S'fillers/1-6'
p283
aI877
aa(lp284
S'fillers/1-7'
p285
aI844
aasg27
g28
sg29
g54
sg31
g32
sg33
I2334
sg34
g35
sa(dp286
g2
I6904
sg3
g109
sg5
g6
sg7
g8
sg9
S'A'
p287
sg11
(lp288
(lp289
S'chords/3-1'
p290
aI1014
aa(lp291
S'chords/3-2'
p292
aI983
aa(lp293
S'chords/3-3'
p294
aI901
aa(lp295
S'chords/3-4'
p296
aI858
aa(lp297
S'chords/3-5-1'
p298
aI1017
aa(lp299
S'chords/3-6'
p300
aI1063
aa(lp301
S'chords/3-7'
p302
aI1068
aasg27
g28
sg29
g30
sg31
g32
sg33
I2059
sg34
g35
sa(dp303
g2
I6506
sg3
g8
sg5
g6
sg7
g8
sg9
g10
sg11
(lp304
(lp305
S'chords/2-1'
p306
aI942
aa(lp307
S'chords/2-2'
p308
aI935
aa(lp309
S'chords/2-3'
p310
aI937
aa(lp311
S'chords/2-4'
p312
aI842
aa(lp313
S'chords/2-5-2'
p314
aI866
aa(lp315
S'chords/2-6'
p316
aI996
aa(lp317
S'chords/2-7'
p318
aI988
aasg27
g28
sg29
g30
sg31
g32
sg33
I5634
sg34
g35
sa(dp319
g2
I6610
sg3
g38
sg5
g6
sg7
g8
sg9
g287
sg11
(lp320
(lp321
S'chords/1-1'
p322
aI994
aa(lp323
S'chords/1-2'
p324
aI886
aa(lp325
S'chords/1-3'
p326
aI900
aa(lp327
S'chords/1-4'
p328
aI884
aa(lp329
S'chords/1-5-1'
p330
aI928
aa(lp331
S'chords/1-6'
p332
aI1012
aa(lp333
S'chords/1-7'
p334
aI1006
aasg27
g28
sg29
g30
sg31
g32
sg33
I1473
sg34
g35
sa(dp335
g2
I5575
sg3
g38
sg5
g6
sg7
g8
sg9
g10
sg11
(lp336
(lp337
S'chords/1-1'
p338
aI812
aa(lp339
S'chords/1-2'
p340
aI761
aa(lp341
S'chords/1-3'
p342
aI714
aa(lp343
S'chords/1-4'
p344
aI738
aa(lp345
S'chords/1-5-2'
p346
aI859
aa(lp347
S'chords/1-6'
p348
aI864
aa(lp349
S'chords/1-7'
p350
aI827
aasg27
g28
sg29
g30
sg31
g141
sg33
I5524
sg34
g35
sa(dp351
g2
I6857
sg3
g109
sg5
g6
sg7
g8
sg9
g10
sg11
(lp352
(lp353
S'chords/3-1'
p354
aI1019
aa(lp355
S'chords/3-2'
p356
aI950
aa(lp357
S'chords/3-3'
p358
aI949
aa(lp359
S'chords/3-4'
p360
aI959
aa(lp361
S'chords/3-5-2'
p362
aI934
aa(lp363
S'chords/3-6'
p364
aI1006
aa(lp365
S'chords/3-7'
p366
aI1040
aasg27
g28
sg29
g30
sg31
g141
sg33
I4475
sg34
g35
sa(dp367
g2
I7011
sg3
g8
sg5
g37
sg7
g8
sg9
g8
sg11
(lp368
(lp369
S'fillers/2-1'
p370
aI1154
aa(lp371
S'fillers/2-2'
p372
aI954
aa(lp373
S'fillers/2-3-2'
p374
aI1006
aa(lp375
S'fillers/2-4'
p376
aI963
aa(lp377
S'fillers/2-5'
p378
aI965
aa(lp379
S'fillers/2-6'
p380
aI982
aa(lp381
S'fillers/2-7'
p382
aI987
aasg27
g28
sg29
g54
sg31
g141
sg33
I3499
sg34
g35
sa(dp383
g2
I6425
sg3
g4
sg5
g6
sg7
g8
sg9
g287
sg11
(lp384
(lp385
S'chords/4-1'
p386
aI952
aa(lp387
S'chords/4-2'
p388
aI858
aa(lp389
S'chords/4-3'
p390
aI860
aa(lp391
S'chords/4-4'
p392
aI926
aa(lp393
S'chords/4-5-1'
p394
aI869
aa(lp395
S'chords/4-6'
p396
aI903
aa(lp397
S'chords/4-7'
p398
aI1057
aasg27
g28
sg29
g30
sg31
g32
sg33
I3706
sg34
g35
sa(dp399
g2
I6377
sg3
g8
sg5
g6
sg7
g8
sg9
g287
sg11
(lp400
(lp401
S'chords/2-1'
p402
aI862
aa(lp403
S'chords/2-2'
p404
aI801
aa(lp405
S'chords/2-3'
p406
aI924
aa(lp407
S'chords/2-4'
p408
aI894
aa(lp409
S'chords/2-5-1'
p410
aI910
aa(lp411
S'chords/2-6'
p412
aI939
aa(lp413
S'chords/2-7'
p414
aI1047
aasg27
g28
sg29
g30
sg31
g32
sg33
I1187
sg34
g35
sa(dp415
g2
I5798
sg3
g74
sg5
g6
sg7
g8
sg9
g287
sg11
(lp416
(lp417
S'chords/0-1'
p418
aI826
aa(lp419
S'chords/0-2'
p420
aI834
aa(lp421
S'chords/0-3'
p422
aI789
aa(lp423
S'chords/0-4'
p424
aI772
aa(lp425
S'chords/0-5-1'
p426
aI853
aa(lp427
S'chords/0-6'
p428
aI850
aa(lp429
S'chords/0-7'
p430
aI874
aasg27
g28
sg29
g30
sg31
g32
sg33
I1634
sg34
g35
sa(dp431
g2
I5852
sg3
g92
sg5
g6
sg7
g8
sg9
g287
sg11
(lp432
(lp433
S'chords/5-1'
p434
aI795
aa(lp435
S'chords/5-2'
p436
aI807
aa(lp437
S'chords/5-3'
p438
aI841
aa(lp439
S'chords/5-4'
p440
aI783
aa(lp441
S'chords/5-5-1'
p442
aI753
aa(lp443
S'chords/5-6'
p444
aI728
aa(lp445
S'chords/5-7'
p446
aI1145
aasg27
g28
sg29
g30
sg31
g32
sg33
I1984
sg34
g35
sa(dp447
g2
I5645
sg3
g109
sg5
g37
sg7
g8
sg9
g38
sg11
(lp448
(lp449
S'fillers/3-1'
p450
aI808
aa(lp451
S'fillers/3-2'
p452
aI739
aa(lp453
S'fillers/3-3-1'
p454
aI783
aa(lp455
S'fillers/3-4'
p456
aI769
aa(lp457
S'fillers/3-5'
p458
aI806
aa(lp459
S'fillers/3-6'
p460
aI884
aa(lp461
S'fillers/3-7'
p462
aI856
aasg27
g28
sg29
g54
sg31
g55
sg33
I2861
sg34
g35
sa.