(lp0
(dp1
S'total.listening.time'
p2
I0
sS'transposition'
p3
S'1'
p4
sS'dir'
p5
S'chords/'
p6
sS'experiment'
p7
S'2'
p8
sS'condition'
p9
S'C'
p10
sS'chunks'
p11
(lp12
(lp13
S'chords/1-1'
p14
aI0
aa(lp15
S'chords/1-2'
p16
aI0
aa(lp17
S'chords/1-3'
p18
aI0
aa(lp19
S'chords/1-4-3'
p20
aI0
aa(lp21
S'chords/1-5'
p22
aI0
aasS'subject'
p23
S'mm'
p24
sS'type'
p25
S'experimental_trial'
p26
sS'response'
p27
S'NA'
p28
sS'response_time'
p29
g28
sS'pilot'
p30
S'1'
p31
sa(dp32
g2
I0
sg3
g8
sg5
S'fillers/'
p33
sg7
g8
sg9
g8
sg11
(lp34
(lp35
S'fillers/2-1'
p36
aI0
aa(lp37
S'fillers/2-2-2'
p38
aI0
aa(lp39
S'fillers/2-3'
p40
aI0
aa(lp41
S'fillers/2-4'
p42
aI0
aa(lp43
S'fillers/2-5'
p44
aI0
aasg23
g24
sg25
S'filler'
p45
sg27
g28
sg29
g28
sg30
g31
sa(dp46
g2
I0
sg3
g4
sg5
g6
sg7
g8
sg9
S'B'
p47
sg11
(lp48
(lp49
S'chords/1-1'
p50
aI0
aa(lp51
S'chords/1-2'
p52
aI0
aa(lp53
S'chords/1-3'
p54
aI0
aa(lp55
S'chords/1-4-2'
p56
aI0
aa(lp57
S'chords/1-5'
p58
aI0
aasg23
g24
sg25
g26
sg27
g28
sg29
g28
sg30
g31
sa(dp59
g2
I0
sg3
S'0'
p60
sg5
g33
sg7
g8
sg9
S'3'
p61
sg11
(lp62
(lp63
S'fillers/0-1'
p64
aI0
aa(lp65
S'fillers/0-2-3'
p66
aI0
aa(lp67
S'fillers/0-3'
p68
aI0
aa(lp69
S'fillers/0-4'
p70
aI0
aa(lp71
S'fillers/0-5'
p72
aI0
aasg23
g24
sg25
g45
sg27
g28
sg29
g28
sg30
g31
sa(dp73
g2
I0
sg3
g4
sg5
g33
sg7
g8
sg9
g4
sg11
(lp74
(lp75
S'fillers/1-1'
p76
aI0
aa(lp77
S'fillers/1-2-1'
p78
aI0
aa(lp79
S'fillers/1-3'
p80
aI0
aa(lp81
S'fillers/1-4'
p82
aI0
aa(lp83
S'fillers/1-5'
p84
aI0
aasg23
g24
sg25
g45
sg27
g28
sg29
g28
sg30
g31
sa(dp85
g2
I0
sg3
g60
sg5
g6
sg7
g8
sg9
g10
sg11
(lp86
(lp87
S'chords/0-1'
p88
aI0
aa(lp89
S'chords/0-2'
p90
aI0
aa(lp91
S'chords/0-3'
p92
aI0
aa(lp93
S'chords/0-4-3'
p94
aI0
aa(lp95
S'chords/0-5'
p96
aI0
aasg23
g24
sg25
g26
sg27
g28
sg29
g28
sg30
g31
sa(dp97
g2
I0
sg3
g60
sg5
g6
sg7
g8
sg9
g47
sg11
(lp98
(lp99
S'chords/0-1'
p100
aI0
aa(lp101
S'chords/0-2'
p102
aI0
aa(lp103
S'chords/0-3'
p104
aI0
aa(lp105
S'chords/0-4-2'
p106
aI0
aa(lp107
S'chords/0-5'
p108
aI0
aasg23
g24
sg25
g26
sg27
g28
sg29
g28
sg30
g31
sa(dp109
g2
I0
sg3
g8
sg5
g33
sg7
g8
sg9
g4
sg11
(lp110
(lp111
S'fillers/2-1'
p112
aI0
aa(lp113
S'fillers/2-2-1'
p114
aI0
aa(lp115
S'fillers/2-3'
p116
aI0
aa(lp117
S'fillers/2-4'
p118
aI0
aa(lp119
S'fillers/2-5'
p120
aI0
aasg23
g24
sg25
g45
sg27
g28
sg29
g28
sg30
g31
sa(dp121
g2
I0
sg3
g4
sg5
g6
sg7
g8
sg9
S'A'
p122
sg11
(lp123
(lp124
S'chords/1-1'
p125
aI0
aa(lp126
S'chords/1-2'
p127
aI0
aa(lp128
S'chords/1-3'
p129
aI0
aa(lp130
S'chords/1-4-1'
p131
aI0
aa(lp132
S'chords/1-5'
p133
aI0
aasg23
g24
sg25
g26
sg27
g28
sg29
g28
sg30
g31
sa(dp134
g2
I0
sg3
g8
sg5
g6
sg7
g8
sg9
g122
sg11
(lp135
(lp136
S'chords/2-1'
p137
aI0
aa(lp138
S'chords/2-2'
p139
aI0
aa(lp140
S'chords/2-3'
p141
aI0
aa(lp142
S'chords/2-4-1'
p143
aI0
aa(lp144
S'chords/2-5'
p145
aI0
aasg23
g24
sg25
g26
sg27
g28
sg29
g28
sg30
g31
sa(dp146
g2
I0
sg3
g8
sg5
g6
sg7
g8
sg9
g47
sg11
(lp147
(lp148
S'chords/2-1'
p149
aI0
aa(lp150
S'chords/2-2'
p151
aI0
aa(lp152
S'chords/2-3'
p153
aI0
aa(lp154
S'chords/2-4-2'
p155
aI0
aa(lp156
S'chords/2-5'
p157
aI0
aasg23
g24
sg25
g26
sg27
g28
sg29
g28
sg30
g31
sa(dp158
g2
I0
sg3
g61
sg5
g6
sg7
g8
sg9
g122
sg11
(lp159
(lp160
S'chords/3-1'
p161
aI0
aa(lp162
S'chords/3-2'
p163
aI0
aa(lp164
S'chords/3-3'
p165
aI0
aa(lp166
S'chords/3-4-1'
p167
aI0
aa(lp168
S'chords/3-5'
p169
aI0
aasg23
g24
sg25
g26
sg27
g28
sg29
g28
sg30
g31
sa(dp170
g2
I0
sg3
g61
sg5
g6
sg7
g8
sg9
g10
sg11
(lp171
(lp172
S'chords/3-1'
p173
aI0
aa(lp174
S'chords/3-2'
p175
aI0
aa(lp176
S'chords/3-3'
p177
aI0
aa(lp178
S'chords/3-4-3'
p179
aI0
aa(lp180
S'chords/3-5'
p181
aI0
aasg23
g24
sg25
g26
sg27
g28
sg29
g28
sg30
g31
sa(dp182
g2
I0
sg3
S'5'
p183
sg5
g6
sg7
g8
sg9
g122
sg11
(lp184
(lp185
S'chords/5-1'
p186
aI0
aa(lp187
S'chords/5-2'
p188
aI0
aa(lp189
S'chords/5-3'
p190
aI0
aa(lp191
S'chords/5-4-1'
p192
aI0
aa(lp193
S'chords/5-5'
p194
aI0
aasg23
g24
sg25
g26
sg27
g28
sg29
g28
sg30
g31
sa(dp195
g2
I0
sg3
g60
sg5
g6
sg7
g8
sg9
g122
sg11
(lp196
(lp197
S'chords/0-1'
p198
aI0
aa(lp199
S'chords/0-2'
p200
aI0
aa(lp201
S'chords/0-3'
p202
aI0
aa(lp203
S'chords/0-4-1'
p204
aI0
aa(lp205
S'chords/0-5'
p206
aI0
aasg23
g24
sg25
g26
sg27
g28
sg29
g28
sg30
g31
sa(dp207
g2
I0
sg3
g4
sg5
g33
sg7
g8
sg9
g61
sg11
(lp208
(lp209
S'fillers/1-1'
p210
aI0
aa(lp211
S'fillers/1-2-3'
p212
aI0
aa(lp213
S'fillers/1-3'
p214
aI0
aa(lp215
S'fillers/1-4'
p216
aI0
aa(lp217
S'fillers/1-5'
p218
aI0
aasg23
g24
sg25
g45
sg27
g28
sg29
g28
sg30
g31
sa(dp219
g2
I0
sg3
g183
sg5
g6
sg7
g8
sg9
g10
sg11
(lp220
(lp221
S'chords/5-1'
p222
aI0
aa(lp223
S'chords/5-2'
p224
aI0
aa(lp225
S'chords/5-3'
p226
aI0
aa(lp227
S'chords/5-4-3'
p228
aI0
aa(lp229
S'chords/5-5'
p230
aI0
aasg23
g24
sg25
g26
sg27
g28
sg29
g28
sg30
g31
sa(dp231
g2
I0
sg3
S'4'
p232
sg5
g6
sg7
g8
sg9
g10
sg11
(lp233
(lp234
S'chords/4-1'
p235
aI0
aa(lp236
S'chords/4-2'
p237
aI0
aa(lp238
S'chords/4-3'
p239
aI0
aa(lp240
S'chords/4-4-3'
p241
aI0
aa(lp242
S'chords/4-5'
p243
aI0
aasg23
g24
sg25
g26
sg27
g28
sg29
g28
sg30
g31
sa(dp244
g2
I0
sg3
g8
sg5
g6
sg7
g8
sg9
g10
sg11
(lp245
(lp246
S'chords/2-1'
p247
aI0
aa(lp248
S'chords/2-2'
p249
aI0
aa(lp250
S'chords/2-3'
p251
aI0
aa(lp252
S'chords/2-4-3'
p253
aI0
aa(lp254
S'chords/2-5'
p255
aI0
aasg23
g24
sg25
g26
sg27
g28
sg29
g28
sg30
g31
sa(dp256
g2
I0
sg3
g61
sg5
g6
sg7
g8
sg9
g47
sg11
(lp257
(lp258
S'chords/3-1'
p259
aI0
aa(lp260
S'chords/3-2'
p261
aI0
aa(lp262
S'chords/3-3'
p263
aI0
aa(lp264
S'chords/3-4-2'
p265
aI0
aa(lp266
S'chords/3-5'
p267
aI0
aasg23
g24
sg25
g26
sg27
g28
sg29
g28
sg30
g31
sa(dp268
g2
I0
sg3
g232
sg5
g6
sg7
g8
sg9
g47
sg11
(lp269
(lp270
S'chords/4-1'
p271
aI0
aa(lp272
S'chords/4-2'
p273
aI0
aa(lp274
S'chords/4-3'
p275
aI0
aa(lp276
S'chords/4-4-2'
p277
aI0
aa(lp278
S'chords/4-5'
p279
aI0
aasg23
g24
sg25
g26
sg27
g28
sg29
g28
sg30
g31
sa(dp280
g2
I0
sg3
g60
sg5
g33
sg7
g8
sg9
g8
sg11
(lp281
(lp282
S'fillers/0-1'
p283
aI0
aa(lp284
S'fillers/0-2-2'
p285
aI0
aa(lp286
S'fillers/0-3'
p287
aI0
aa(lp288
S'fillers/0-4'
p289
aI0
aa(lp290
S'fillers/0-5'
p291
aI0
aasg23
g24
sg25
g45
sg27
g28
sg29
g28
sg30
g31
sa(dp292
g2
I0
sg3
g232
sg5
g6
sg7
g8
sg9
g122
sg11
(lp293
(lp294
S'chords/4-1'
p295
aI0
aa(lp296
S'chords/4-2'
p297
aI0
aa(lp298
S'chords/4-3'
p299
aI0
aa(lp300
S'chords/4-4-1'
p301
aI0
aa(lp302
S'chords/4-5'
p303
aI0
aasg23
g24
sg25
g26
sg27
g28
sg29
g28
sg30
g31
sa(dp304
g2
I0
sg3
g8
sg5
g33
sg7
g8
sg9
g61
sg11
(lp305
(lp306
S'fillers/2-1'
p307
aI0
aa(lp308
S'fillers/2-2-3'
p309
aI0
aa(lp310
S'fillers/2-3'
p311
aI0
aa(lp312
S'fillers/2-4'
p313
aI0
aa(lp314
S'fillers/2-5'
p315
aI0
aasg23
g24
sg25
g45
sg27
g28
sg29
g28
sg30
g31
sa(dp316
g2
I0
sg3
g183
sg5
g6
sg7
g8
sg9
g47
sg11
(lp317
(lp318
S'chords/5-1'
p319
aI0
aa(lp320
S'chords/5-2'
p321
aI0
aa(lp322
S'chords/5-3'
p323
aI0
aa(lp324
S'chords/5-4-2'
p325
aI0
aa(lp326
S'chords/5-5'
p327
aI0
aasg23
g24
sg25
g26
sg27
g28
sg29
g28
sg30
g31
sa(dp328
g2
I0
sg3
g60
sg5
g33
sg7
g8
sg9
g4
sg11
(lp329
(lp330
S'fillers/0-1'
p331
aI0
aa(lp332
S'fillers/0-2-1'
p333
aI0
aa(lp334
S'fillers/0-3'
p335
aI0
aa(lp336
S'fillers/0-4'
p337
aI0
aa(lp338
S'fillers/0-5'
p339
aI0
aasg23
g24
sg25
g45
sg27
g28
sg29
g28
sg30
g31
sa(dp340
g2
I0
sg3
g4
sg5
g33
sg7
g8
sg9
g8
sg11
(lp341
(lp342
S'fillers/1-1'
p343
aI0
aa(lp344
S'fillers/1-2-2'
p345
aI0
aa(lp346
S'fillers/1-3'
p347
aI0
aa(lp348
S'fillers/1-4'
p349
aI0
aa(lp350
S'fillers/1-5'
p351
aI0
aasg23
g24
sg25
g45
sg27
g28
sg29
g28
sg30
g31
sa.