(lp0
(dp1
S'total.listening.time'
p2
I0
sS'transposition'
p3
S'2'
p4
sS'dir'
p5
S'Fillers/'
p6
sS'experiment'
p7
g4
sS'condition'
p8
g4
sS'chunks'
p9
(lp10
(lp11
S'Fillers/2-1'
p12
aI0
aa(lp13
S'Fillers/2-2-2'
p14
aI0
aa(lp15
S'Fillers/2-3'
p16
aI0
aa(lp17
S'Fillers/2-4'
p18
aI0
aa(lp19
S'Fillers/2-5'
p20
aI0
aasS'subject'
p21
S'mm'
p22
sS'type'
p23
S'filler'
p24
sS'response'
p25
S'NA'
p26
sS'response_time'
p27
g26
sS'pilot'
p28
S'1'
p29
sa(dp30
g2
I0
sg3
S'0'
p31
sg5
S'Stimuli/'
p32
sg7
g4
sg8
S'C'
p33
sg9
(lp34
(lp35
S'Stimuli/0-1'
p36
aI0
aa(lp37
S'Stimuli/0-2'
p38
aI0
aa(lp39
S'Stimuli/0-3'
p40
aI0
aa(lp41
S'Stimuli/0-4-3'
p42
aI0
aa(lp43
S'Stimuli/0-5'
p44
aI0
aasg21
g22
sg23
S'experimental_trial'
p45
sg25
g26
sg27
g26
sg28
g29
sa(dp46
g2
I0
sg3
S'4'
p47
sg5
g32
sg7
g4
sg8
S'B'
p48
sg9
(lp49
(lp50
S'Stimuli/4-1'
p51
aI0
aa(lp52
S'Stimuli/4-2'
p53
aI0
aa(lp54
S'Stimuli/4-3'
p55
aI0
aa(lp56
S'Stimuli/4-4-2'
p57
aI0
aa(lp58
S'Stimuli/4-5'
p59
aI0
aasg21
g22
sg23
g45
sg25
g26
sg27
g26
sg28
g29
sa(dp60
g2
I0
sg3
g47
sg5
g32
sg7
g4
sg8
g33
sg9
(lp61
(lp62
S'Stimuli/4-1'
p63
aI0
aa(lp64
S'Stimuli/4-2'
p65
aI0
aa(lp66
S'Stimuli/4-3'
p67
aI0
aa(lp68
S'Stimuli/4-4-3'
p69
aI0
aa(lp70
S'Stimuli/4-5'
p71
aI0
aasg21
g22
sg23
g45
sg25
g26
sg27
g26
sg28
g29
sa(dp72
g2
I0
sg3
g31
sg5
g32
sg7
g4
sg8
S'A'
p73
sg9
(lp74
(lp75
S'Stimuli/0-1'
p76
aI0
aa(lp77
S'Stimuli/0-2'
p78
aI0
aa(lp79
S'Stimuli/0-3'
p80
aI0
aa(lp81
S'Stimuli/0-4-1'
p82
aI0
aa(lp83
S'Stimuli/0-5'
p84
aI0
aasg21
g22
sg23
g45
sg25
g26
sg27
g26
sg28
g29
sa(dp85
g2
I0
sg3
S'1'
p86
sg5
g6
sg7
g4
sg8
g4
sg9
(lp87
(lp88
S'Fillers/1-1'
p89
aI0
aa(lp90
S'Fillers/1-2-2'
p91
aI0
aa(lp92
S'Fillers/1-3'
p93
aI0
aa(lp94
S'Fillers/1-4'
p95
aI0
aa(lp96
S'Fillers/1-5'
p97
aI0
aasg21
g22
sg23
g24
sg25
g26
sg27
g26
sg28
g29
sa(dp98
g2
I0
sg3
g47
sg5
g32
sg7
g4
sg8
g73
sg9
(lp99
(lp100
S'Stimuli/4-1'
p101
aI0
aa(lp102
S'Stimuli/4-2'
p103
aI0
aa(lp104
S'Stimuli/4-3'
p105
aI0
aa(lp106
S'Stimuli/4-4-1'
p107
aI0
aa(lp108
S'Stimuli/4-5'
p109
aI0
aasg21
g22
sg23
g45
sg25
g26
sg27
g26
sg28
g29
sa(dp110
g2
I0
sg3
g31
sg5
g6
sg7
g4
sg8
S'3'
p111
sg9
(lp112
(lp113
S'Fillers/0-1'
p114
aI0
aa(lp115
S'Fillers/0-2-3'
p116
aI0
aa(lp117
S'Fillers/0-3'
p118
aI0
aa(lp119
S'Fillers/0-4'
p120
aI0
aa(lp121
S'Fillers/0-5'
p122
aI0
aasg21
g22
sg23
g24
sg25
g26
sg27
g26
sg28
g29
sa(dp123
g2
I0
sg3
g4
sg5
g32
sg7
g4
sg8
g33
sg9
(lp124
(lp125
S'Stimuli/2-1'
p126
aI0
aa(lp127
S'Stimuli/2-2'
p128
aI0
aa(lp129
S'Stimuli/2-3'
p130
aI0
aa(lp131
S'Stimuli/2-4-3'
p132
aI0
aa(lp133
S'Stimuli/2-5'
p134
aI0
aasg21
g22
sg23
g45
sg25
g26
sg27
g26
sg28
g29
sa(dp135
g2
I0
sg3
g31
sg5
g6
sg7
g4
sg8
g86
sg9
(lp136
(lp137
S'Fillers/0-1'
p138
aI0
aa(lp139
S'Fillers/0-2-1'
p140
aI0
aa(lp141
S'Fillers/0-3'
p142
aI0
aa(lp143
S'Fillers/0-4'
p144
aI0
aa(lp145
S'Fillers/0-5'
p146
aI0
aasg21
g22
sg23
g24
sg25
g26
sg27
g26
sg28
g29
sa(dp147
g2
I0
sg3
S'5'
p148
sg5
g32
sg7
g4
sg8
g48
sg9
(lp149
(lp150
S'Stimuli/5-1'
p151
aI0
aa(lp152
S'Stimuli/5-2'
p153
aI0
aa(lp154
S'Stimuli/5-3'
p155
aI0
aa(lp156
S'Stimuli/5-4-2'
p157
aI0
aa(lp158
S'Stimuli/5-5'
p159
aI0
aasg21
g22
sg23
g45
sg25
g26
sg27
g26
sg28
g29
sa(dp160
g2
I0
sg3
g4
sg5
g32
sg7
g4
sg8
g48
sg9
(lp161
(lp162
S'Stimuli/2-1'
p163
aI0
aa(lp164
S'Stimuli/2-2'
p165
aI0
aa(lp166
S'Stimuli/2-3'
p167
aI0
aa(lp168
S'Stimuli/2-4-2'
p169
aI0
aa(lp170
S'Stimuli/2-5'
p171
aI0
aasg21
g22
sg23
g45
sg25
g26
sg27
g26
sg28
g29
sa(dp172
g2
I0
sg3
g86
sg5
g32
sg7
g4
sg8
g73
sg9
(lp173
(lp174
S'Stimuli/1-1'
p175
aI0
aa(lp176
S'Stimuli/1-2'
p177
aI0
aa(lp178
S'Stimuli/1-3'
p179
aI0
aa(lp180
S'Stimuli/1-4-1'
p181
aI0
aa(lp182
S'Stimuli/1-5'
p183
aI0
aasg21
g22
sg23
g45
sg25
g26
sg27
g26
sg28
g29
sa(dp184
g2
I0
sg3
g86
sg5
g6
sg7
g4
sg8
g111
sg9
(lp185
(lp186
S'Fillers/1-1'
p187
aI0
aa(lp188
S'Fillers/1-2-3'
p189
aI0
aa(lp190
S'Fillers/1-3'
p191
aI0
aa(lp192
S'Fillers/1-4'
p193
aI0
aa(lp194
S'Fillers/1-5'
p195
aI0
aasg21
g22
sg23
g24
sg25
g26
sg27
g26
sg28
g29
sa(dp196
g2
I0
sg3
g86
sg5
g32
sg7
g4
sg8
g48
sg9
(lp197
(lp198
S'Stimuli/1-1'
p199
aI0
aa(lp200
S'Stimuli/1-2'
p201
aI0
aa(lp202
S'Stimuli/1-3'
p203
aI0
aa(lp204
S'Stimuli/1-4-2'
p205
aI0
aa(lp206
S'Stimuli/1-5'
p207
aI0
aasg21
g22
sg23
g45
sg25
g26
sg27
g26
sg28
g29
sa(dp208
g2
I0
sg3
g111
sg5
g32
sg7
g4
sg8
g33
sg9
(lp209
(lp210
S'Stimuli/3-1'
p211
aI0
aa(lp212
S'Stimuli/3-2'
p213
aI0
aa(lp214
S'Stimuli/3-3'
p215
aI0
aa(lp216
S'Stimuli/3-4-3'
p217
aI0
aa(lp218
S'Stimuli/3-5'
p219
aI0
aasg21
g22
sg23
g45
sg25
g26
sg27
g26
sg28
g29
sa(dp220
g2
I0
sg3
g86
sg5
g32
sg7
g4
sg8
g33
sg9
(lp221
(lp222
S'Stimuli/1-1'
p223
aI0
aa(lp224
S'Stimuli/1-2'
p225
aI0
aa(lp226
S'Stimuli/1-3'
p227
aI0
aa(lp228
S'Stimuli/1-4-3'
p229
aI0
aa(lp230
S'Stimuli/1-5'
p231
aI0
aasg21
g22
sg23
g45
sg25
g26
sg27
g26
sg28
g29
sa(dp232
g2
I0
sg3
g86
sg5
g6
sg7
g4
sg8
g86
sg9
(lp233
(lp234
S'Fillers/1-1'
p235
aI0
aa(lp236
S'Fillers/1-2-1'
p237
aI0
aa(lp238
S'Fillers/1-3'
p239
aI0
aa(lp240
S'Fillers/1-4'
p241
aI0
aa(lp242
S'Fillers/1-5'
p243
aI0
aasg21
g22
sg23
g24
sg25
g26
sg27
g26
sg28
g29
sa(dp244
g2
I0
sg3
g4
sg5
g6
sg7
g4
sg8
g86
sg9
(lp245
(lp246
S'Fillers/2-1'
p247
aI0
aa(lp248
S'Fillers/2-2-1'
p249
aI0
aa(lp250
S'Fillers/2-3'
p251
aI0
aa(lp252
S'Fillers/2-4'
p253
aI0
aa(lp254
S'Fillers/2-5'
p255
aI0
aasg21
g22
sg23
g24
sg25
g26
sg27
g26
sg28
g29
sa(dp256
g2
I0
sg3
g31
sg5
g32
sg7
g4
sg8
g48
sg9
(lp257
(lp258
S'Stimuli/0-1'
p259
aI0
aa(lp260
S'Stimuli/0-2'
p261
aI0
aa(lp262
S'Stimuli/0-3'
p263
aI0
aa(lp264
S'Stimuli/0-4-2'
p265
aI0
aa(lp266
S'Stimuli/0-5'
p267
aI0
aasg21
g22
sg23
g45
sg25
g26
sg27
g26
sg28
g29
sa(dp268
g2
I0
sg3
g111
sg5
g32
sg7
g4
sg8
g73
sg9
(lp269
(lp270
S'Stimuli/3-1'
p271
aI0
aa(lp272
S'Stimuli/3-2'
p273
aI0
aa(lp274
S'Stimuli/3-3'
p275
aI0
aa(lp276
S'Stimuli/3-4-1'
p277
aI0
aa(lp278
S'Stimuli/3-5'
p279
aI0
aasg21
g22
sg23
g45
sg25
g26
sg27
g26
sg28
g29
sa(dp280
g2
I0
sg3
g4
sg5
g32
sg7
g4
sg8
g73
sg9
(lp281
(lp282
S'Stimuli/2-1'
p283
aI0
aa(lp284
S'Stimuli/2-2'
p285
aI0
aa(lp286
S'Stimuli/2-3'
p287
aI0
aa(lp288
S'Stimuli/2-4-1'
p289
aI0
aa(lp290
S'Stimuli/2-5'
p291
aI0
aasg21
g22
sg23
g45
sg25
g26
sg27
g26
sg28
g29
sa(dp292
g2
I0
sg3
g111
sg5
g32
sg7
g4
sg8
g48
sg9
(lp293
(lp294
S'Stimuli/3-1'
p295
aI0
aa(lp296
S'Stimuli/3-2'
p297
aI0
aa(lp298
S'Stimuli/3-3'
p299
aI0
aa(lp300
S'Stimuli/3-4-2'
p301
aI0
aa(lp302
S'Stimuli/3-5'
p303
aI0
aasg21
g22
sg23
g45
sg25
g26
sg27
g26
sg28
g29
sa(dp304
g2
I0
sg3
g148
sg5
g32
sg7
g4
sg8
g33
sg9
(lp305
(lp306
S'Stimuli/5-1'
p307
aI0
aa(lp308
S'Stimuli/5-2'
p309
aI0
aa(lp310
S'Stimuli/5-3'
p311
aI0
aa(lp312
S'Stimuli/5-4-3'
p313
aI0
aa(lp314
S'Stimuli/5-5'
p315
aI0
aasg21
g22
sg23
g45
sg25
g26
sg27
g26
sg28
g29
sa(dp316
g2
I0
sg3
g31
sg5
g6
sg7
g4
sg8
g4
sg9
(lp317
(lp318
S'Fillers/0-1'
p319
aI0
aa(lp320
S'Fillers/0-2-2'
p321
aI0
aa(lp322
S'Fillers/0-3'
p323
aI0
aa(lp324
S'Fillers/0-4'
p325
aI0
aa(lp326
S'Fillers/0-5'
p327
aI0
aasg21
g22
sg23
g24
sg25
g26
sg27
g26
sg28
g29
sa(dp328
g2
I0
sg3
g148
sg5
g32
sg7
g4
sg8
g73
sg9
(lp329
(lp330
S'Stimuli/5-1'
p331
aI0
aa(lp332
S'Stimuli/5-2'
p333
aI0
aa(lp334
S'Stimuli/5-3'
p335
aI0
aa(lp336
S'Stimuli/5-4-1'
p337
aI0
aa(lp338
S'Stimuli/5-5'
p339
aI0
aasg21
g22
sg23
g45
sg25
g26
sg27
g26
sg28
g29
sa(dp340
g2
I0
sg3
g4
sg5
g6
sg7
g4
sg8
g111
sg9
(lp341
(lp342
S'Fillers/2-1'
p343
aI0
aa(lp344
S'Fillers/2-2-3'
p345
aI0
aa(lp346
S'Fillers/2-3'
p347
aI0
aa(lp348
S'Fillers/2-4'
p349
aI0
aa(lp350
S'Fillers/2-5'
p351
aI0
aasg21
g22
sg23
g24
sg25
g26
sg27
g26
sg28
g29
sa.