(lp0
(dp1
S'total.listening.time'
p2
I7821
sS'transposition'
p3
S'2'
p4
sS'dir'
p5
S'fillers/'
p6
sS'experiment'
p7
g4
sS'condition'
p8
S'1'
p9
sS'chunks'
p10
(lp11
(lp12
S'fillers/2-1'
p13
aI1808
aa(lp14
S'fillers/2-2-1'
p15
aI1446
aa(lp16
S'fillers/2-3'
p17
aI1330
aa(lp18
S'fillers/2-4'
p19
aI1210
aa(lp20
S'fillers/2-5'
p21
aI2027
aasS'subject'
p22
S'mm'
p23
sS'type'
p24
S'filler'
p25
sS'response'
p26
S'Somewhat complete'
p27
sS'response_time'
p28
I1689
sS'pilot'
p29
S'1'
p30
sa(dp31
g2
I0
sg3
g9
sg5
S'chords/'
p32
sg7
g4
sg8
S'A'
p33
sg10
(lp34
(lp35
S'chords/1-1'
p36
aI0
aa(lp37
S'chords/1-2'
p38
aI0
aa(lp39
S'chords/1-3'
p40
aI0
aa(lp41
S'chords/1-4-1'
p42
aI0
aa(lp43
S'chords/1-5'
p44
aI0
aasg22
g23
sg24
S'experimental_trial'
p45
sg26
S'NA'
p46
sg28
g46
sg29
g30
sa(dp47
g2
I0
sg3
S'4'
p48
sg5
g32
sg7
g4
sg8
S'B'
p49
sg10
(lp50
(lp51
S'chords/4-1'
p52
aI0
aa(lp53
S'chords/4-2'
p54
aI0
aa(lp55
S'chords/4-3'
p56
aI0
aa(lp57
S'chords/4-4-2'
p58
aI0
aa(lp59
S'chords/4-5'
p60
aI0
aasg22
g23
sg24
g45
sg26
g46
sg28
g46
sg29
g30
sa(dp61
g2
I0
sg3
g4
sg5
g6
sg7
g4
sg8
g4
sg10
(lp62
(lp63
S'fillers/2-1'
p64
aI0
aa(lp65
S'fillers/2-2-2'
p66
aI0
aa(lp67
S'fillers/2-3'
p68
aI0
aa(lp69
S'fillers/2-4'
p70
aI0
aa(lp71
S'fillers/2-5'
p72
aI0
aasg22
g23
sg24
g25
sg26
g46
sg28
g46
sg29
g30
sa(dp73
g2
I0
sg3
g9
sg5
g6
sg7
g4
sg8
g9
sg10
(lp74
(lp75
S'fillers/1-1'
p76
aI0
aa(lp77
S'fillers/1-2-1'
p78
aI0
aa(lp79
S'fillers/1-3'
p80
aI0
aa(lp81
S'fillers/1-4'
p82
aI0
aa(lp83
S'fillers/1-5'
p84
aI0
aasg22
g23
sg24
g25
sg26
g46
sg28
g46
sg29
g30
sa(dp85
g2
I0
sg3
S'0'
p86
sg5
g32
sg7
g4
sg8
g33
sg10
(lp87
(lp88
S'chords/0-1'
p89
aI0
aa(lp90
S'chords/0-2'
p91
aI0
aa(lp92
S'chords/0-3'
p93
aI0
aa(lp94
S'chords/0-4-1'
p95
aI0
aa(lp96
S'chords/0-5'
p97
aI0
aasg22
g23
sg24
g45
sg26
g46
sg28
g46
sg29
g30
sa(dp98
g2
I0
sg3
g86
sg5
g32
sg7
g4
sg8
g49
sg10
(lp99
(lp100
S'chords/0-1'
p101
aI0
aa(lp102
S'chords/0-2'
p103
aI0
aa(lp104
S'chords/0-3'
p105
aI0
aa(lp106
S'chords/0-4-2'
p107
aI0
aa(lp108
S'chords/0-5'
p109
aI0
aasg22
g23
sg24
g45
sg26
g46
sg28
g46
sg29
g30
sa(dp110
g2
I0
sg3
g86
sg5
g6
sg7
g4
sg8
g9
sg10
(lp111
(lp112
S'fillers/0-1'
p113
aI0
aa(lp114
S'fillers/0-2-1'
p115
aI0
aa(lp116
S'fillers/0-3'
p117
aI0
aa(lp118
S'fillers/0-4'
p119
aI0
aa(lp120
S'fillers/0-5'
p121
aI0
aasg22
g23
sg24
g25
sg26
g46
sg28
g46
sg29
g30
sa(dp122
g2
I0
sg3
S'3'
p123
sg5
g32
sg7
g4
sg8
g49
sg10
(lp124
(lp125
S'chords/3-1'
p126
aI0
aa(lp127
S'chords/3-2'
p128
aI0
aa(lp129
S'chords/3-3'
p130
aI0
aa(lp131
S'chords/3-4-2'
p132
aI0
aa(lp133
S'chords/3-5'
p134
aI0
aasg22
g23
sg24
g45
sg26
g46
sg28
g46
sg29
g30
sa(dp135
g2
I0
sg3
g4
sg5
g32
sg7
g4
sg8
g49
sg10
(lp136
(lp137
S'chords/2-1'
p138
aI0
aa(lp139
S'chords/2-2'
p140
aI0
aa(lp141
S'chords/2-3'
p142
aI0
aa(lp143
S'chords/2-4-2'
p144
aI0
aa(lp145
S'chords/2-5'
p146
aI0
aasg22
g23
sg24
g45
sg26
g46
sg28
g46
sg29
g30
sa(dp147
g2
I0
sg3
S'5'
p148
sg5
g32
sg7
g4
sg8
g49
sg10
(lp149
(lp150
S'chords/5-1'
p151
aI0
aa(lp152
S'chords/5-2'
p153
aI0
aa(lp154
S'chords/5-3'
p155
aI0
aa(lp156
S'chords/5-4-2'
p157
aI0
aa(lp158
S'chords/5-5'
p159
aI0
aasg22
g23
sg24
g45
sg26
g46
sg28
g46
sg29
g30
sa(dp160
g2
I0
sg3
g48
sg5
g32
sg7
g4
sg8
S'C'
p161
sg10
(lp162
(lp163
S'chords/4-1'
p164
aI0
aa(lp165
S'chords/4-2'
p166
aI0
aa(lp167
S'chords/4-3'
p168
aI0
aa(lp169
S'chords/4-4-3'
p170
aI0
aa(lp171
S'chords/4-5'
p172
aI0
aasg22
g23
sg24
g45
sg26
g46
sg28
g46
sg29
g30
sa(dp173
g2
I0
sg3
g4
sg5
g32
sg7
g4
sg8
g33
sg10
(lp174
(lp175
S'chords/2-1'
p176
aI0
aa(lp177
S'chords/2-2'
p178
aI0
aa(lp179
S'chords/2-3'
p180
aI0
aa(lp181
S'chords/2-4-1'
p182
aI0
aa(lp183
S'chords/2-5'
p184
aI0
aasg22
g23
sg24
g45
sg26
g46
sg28
g46
sg29
g30
sa(dp185
g2
I0
sg3
g86
sg5
g6
sg7
g4
sg8
g4
sg10
(lp186
(lp187
S'fillers/0-1'
p188
aI0
aa(lp189
S'fillers/0-2-2'
p190
aI0
aa(lp191
S'fillers/0-3'
p192
aI0
aa(lp193
S'fillers/0-4'
p194
aI0
aa(lp195
S'fillers/0-5'
p196
aI0
aasg22
g23
sg24
g25
sg26
g46
sg28
g46
sg29
g30
sa(dp197
g2
I0
sg3
g86
sg5
g6
sg7
g4
sg8
g123
sg10
(lp198
(lp199
S'fillers/0-1'
p200
aI0
aa(lp201
S'fillers/0-2-3'
p202
aI0
aa(lp203
S'fillers/0-3'
p204
aI0
aa(lp205
S'fillers/0-4'
p206
aI0
aa(lp207
S'fillers/0-5'
p208
aI0
aasg22
g23
sg24
g25
sg26
g46
sg28
g46
sg29
g30
sa(dp209
g2
I0
sg3
g48
sg5
g32
sg7
g4
sg8
g33
sg10
(lp210
(lp211
S'chords/4-1'
p212
aI0
aa(lp213
S'chords/4-2'
p214
aI0
aa(lp215
S'chords/4-3'
p216
aI0
aa(lp217
S'chords/4-4-1'
p218
aI0
aa(lp219
S'chords/4-5'
p220
aI0
aasg22
g23
sg24
g45
sg26
g46
sg28
g46
sg29
g30
sa(dp221
g2
I0
sg3
g123
sg5
g32
sg7
g4
sg8
g33
sg10
(lp222
(lp223
S'chords/3-1'
p224
aI0
aa(lp225
S'chords/3-2'
p226
aI0
aa(lp227
S'chords/3-3'
p228
aI0
aa(lp229
S'chords/3-4-1'
p230
aI0
aa(lp231
S'chords/3-5'
p232
aI0
aasg22
g23
sg24
g45
sg26
g46
sg28
g46
sg29
g30
sa(dp233
g2
I0
sg3
g148
sg5
g32
sg7
g4
sg8
g161
sg10
(lp234
(lp235
S'chords/5-1'
p236
aI0
aa(lp237
S'chords/5-2'
p238
aI0
aa(lp239
S'chords/5-3'
p240
aI0
aa(lp241
S'chords/5-4-3'
p242
aI0
aa(lp243
S'chords/5-5'
p244
aI0
aasg22
g23
sg24
g45
sg26
g46
sg28
g46
sg29
g30
sa(dp245
g2
I0
sg3
g148
sg5
g32
sg7
g4
sg8
g33
sg10
(lp246
(lp247
S'chords/5-1'
p248
aI0
aa(lp249
S'chords/5-2'
p250
aI0
aa(lp251
S'chords/5-3'
p252
aI0
aa(lp253
S'chords/5-4-1'
p254
aI0
aa(lp255
S'chords/5-5'
p256
aI0
aasg22
g23
sg24
g45
sg26
g46
sg28
g46
sg29
g30
sa(dp257
g2
I0
sg3
g9
sg5
g32
sg7
g4
sg8
g49
sg10
(lp258
(lp259
S'chords/1-1'
p260
aI0
aa(lp261
S'chords/1-2'
p262
aI0
aa(lp263
S'chords/1-3'
p264
aI0
aa(lp265
S'chords/1-4-2'
p266
aI0
aa(lp267
S'chords/1-5'
p268
aI0
aasg22
g23
sg24
g45
sg26
g46
sg28
g46
sg29
g30
sa(dp269
g2
I0
sg3
g86
sg5
g32
sg7
g4
sg8
g161
sg10
(lp270
(lp271
S'chords/0-1'
p272
aI0
aa(lp273
S'chords/0-2'
p274
aI0
aa(lp275
S'chords/0-3'
p276
aI0
aa(lp277
S'chords/0-4-3'
p278
aI0
aa(lp279
S'chords/0-5'
p280
aI0
aasg22
g23
sg24
g45
sg26
g46
sg28
g46
sg29
g30
sa(dp281
g2
I0
sg3
g9
sg5
g32
sg7
g4
sg8
g161
sg10
(lp282
(lp283
S'chords/1-1'
p284
aI0
aa(lp285
S'chords/1-2'
p286
aI0
aa(lp287
S'chords/1-3'
p288
aI0
aa(lp289
S'chords/1-4-3'
p290
aI0
aa(lp291
S'chords/1-5'
p292
aI0
aasg22
g23
sg24
g45
sg26
g46
sg28
g46
sg29
g30
sa(dp293
g2
I0
sg3
g4
sg5
g6
sg7
g4
sg8
g123
sg10
(lp294
(lp295
S'fillers/2-1'
p296
aI0
aa(lp297
S'fillers/2-2-3'
p298
aI0
aa(lp299
S'fillers/2-3'
p300
aI0
aa(lp301
S'fillers/2-4'
p302
aI0
aa(lp303
S'fillers/2-5'
p304
aI0
aasg22
g23
sg24
g25
sg26
g46
sg28
g46
sg29
g30
sa(dp305
g2
I0
sg3
g123
sg5
g32
sg7
g4
sg8
g161
sg10
(lp306
(lp307
S'chords/3-1'
p308
aI0
aa(lp309
S'chords/3-2'
p310
aI0
aa(lp311
S'chords/3-3'
p312
aI0
aa(lp313
S'chords/3-4-3'
p314
aI0
aa(lp315
S'chords/3-5'
p316
aI0
aasg22
g23
sg24
g45
sg26
g46
sg28
g46
sg29
g30
sa(dp317
g2
I0
sg3
g9
sg5
g6
sg7
g4
sg8
g123
sg10
(lp318
(lp319
S'fillers/1-1'
p320
aI0
aa(lp321
S'fillers/1-2-3'
p322
aI0
aa(lp323
S'fillers/1-3'
p324
aI0
aa(lp325
S'fillers/1-4'
p326
aI0
aa(lp327
S'fillers/1-5'
p328
aI0
aasg22
g23
sg24
g25
sg26
g46
sg28
g46
sg29
g30
sa(dp329
g2
I0
sg3
g9
sg5
g6
sg7
g4
sg8
g4
sg10
(lp330
(lp331
S'fillers/1-1'
p332
aI0
aa(lp333
S'fillers/1-2-2'
p334
aI0
aa(lp335
S'fillers/1-3'
p336
aI0
aa(lp337
S'fillers/1-4'
p338
aI0
aa(lp339
S'fillers/1-5'
p340
aI0
aasg22
g23
sg24
g25
sg26
g46
sg28
g46
sg29
g30
sa(dp341
g2
I0
sg3
g4
sg5
g32
sg7
g4
sg8
g161
sg10
(lp342
(lp343
S'chords/2-1'
p344
aI0
aa(lp345
S'chords/2-2'
p346
aI0
aa(lp347
S'chords/2-3'
p348
aI0
aa(lp349
S'chords/2-4-3'
p350
aI0
aa(lp351
S'chords/2-5'
p352
aI0
aasg22
g23
sg24
g45
sg26
g46
sg28
g46
sg29
g30
sa.