(lp0
(dp1
S'experiment'
p2
S'2'
p3
sS'condition'
p4
S'1'
p5
sS'chunks'
p6
(lp7
(lp8
S'fillers/2-1'
p9
aI1416
aa(lp10
S'fillers/2-2-1'
p11
aI1695
aa(lp12
S'fillers/2-3'
p13
aI2504
aa(lp14
S'fillers/2-4'
p15
aI1622
aa(lp16
S'fillers/2-5'
p17
aI1717
aasS'pilot'
p18
S'1'
p19
sS'type'
p20
S'filler'
p21
sS'dir'
p22
S'fillers/'
p23
sS'subject'
p24
S'mm'
p25
sa(dp26
g2
g3
sg4
g3
sg6
(lp27
(lp28
S'fillers/3-1'
p29
aI1770
aa(lp30
S'fillers/3-2-2'
p31
aI1626
aa(lp32
S'fillers/3-3'
p33
aI1692
aa(lp34
S'fillers/3-4'
p35
aI2138
aa(lp36
S'fillers/3-5'
p37
aI2041
aasg18
g19
sg20
g21
sg22
g23
sg24
g25
sa(dp38
g2
g3
sg4
S'3'
p39
sg6
(lp40
(lp41
S'chords/0-1'
p42
aI1681
aa(lp43
S'chords/0-2'
p44
aI949
aa(lp45
S'chords/0-3'
p46
aI2173
aa(lp47
S'chords/0-4-3'
p48
aI2437
aa(lp49
S'chords/0-5'
p50
aI1760
aasg18
g19
sg20
S'experimental_trial'
p51
sg22
S'chords/'
p52
sg24
g25
sa(dp53
g2
g3
sg4
g5
sg6
(lp54
(lp55
S'fillers/1-1'
p56
aI1708
aa(lp57
S'fillers/1-2-1'
p58
aI1557
aa(lp59
S'fillers/1-3'
p60
aI1277
aa(lp61
S'fillers/1-4'
p62
aI1836
aa(lp63
S'fillers/1-5'
p64
aI1531
aasg18
g19
sg20
g21
sg22
g23
sg24
g25
sa(dp65
g2
g3
sg4
g3
sg6
(lp66
(lp67
S'chords/0-1'
p68
aI1184
aa(lp69
S'chords/0-2'
p70
aI1438
aa(lp71
S'chords/0-3'
p72
aI1135
aa(lp73
S'chords/0-4-2'
p74
aI1485
aa(lp75
S'chords/0-5'
p76
aI1370
aasg18
g19
sg20
g51
sg22
g52
sg24
g25
sa(dp77
g2
g3
sg4
g5
sg6
(lp78
(lp79
S'fillers/0-1'
p80
aI1063
aa(lp81
S'fillers/0-2-1'
p82
aI3855
aa(lp83
S'fillers/0-3'
p84
aNaa(lp85
S'fillers/0-4'
p86
aI1916
aa(lp87
S'fillers/0-5'
p88
aNaasg18
g19
sg20
g21
sg22
g23
sg24
g25
sa(dp89
g2
g3
sg4
g3
sg6
(lp90
(lp91
S'fillers/2-1'
p92
aI989
aa(lp93
S'fillers/2-2-2'
p94
aI1014
aa(lp95
S'fillers/2-3'
p96
aI947
aa(lp97
S'fillers/2-4'
p98
aI1059
aa(lp99
S'fillers/2-5'
p100
aI1344
aasg18
g19
sg20
g21
sg22
g23
sg24
g25
sa(dp101
g2
g3
sg4
g39
sg6
(lp102
(lp103
S'fillers/1-1'
p104
aI1136
aa(lp105
S'fillers/1-2-3'
p106
aI927
aa(lp107
S'fillers/1-3'
p108
aI1058
aa(lp109
S'fillers/1-4'
p110
aI1227
aa(lp111
S'fillers/1-5'
p112
aI1251
aasg18
g19
sg20
g21
sg22
g23
sg24
g25
sa(dp113
g2
g3
sg4
g3
sg6
(lp114
(lp115
S'chords/1-1'
p116
aI1200
aa(lp117
S'chords/1-2'
p118
aI1323
aa(lp119
S'chords/1-3'
p120
aI813
aa(lp121
S'chords/1-4-2'
p122
aI1237
aa(lp123
S'chords/1-5'
p124
aI1115
aasg18
g19
sg20
g51
sg22
g52
sg24
g25
sa(dp125
g2
g3
sg4
g39
sg6
(lp126
(lp127
S'fillers/3-1'
p128
aI1055
aa(lp129
S'fillers/3-2-3'
p130
aI945
aa(lp131
S'fillers/3-3'
p132
aI1019
aa(lp133
S'fillers/3-4'
p134
aI1342
aa(lp135
S'fillers/3-5'
p136
aI1022
aasg18
g19
sg20
g21
sg22
g23
sg24
g25
sa(dp137
g2
g3
sg4
g3
sg6
(lp138
(lp139
S'fillers/1-1'
p140
aI1160
aa(lp141
S'fillers/1-2-2'
p142
aI1087
aa(lp143
S'fillers/1-3'
p144
aI1275
aa(lp145
S'fillers/1-4'
p146
aI1274
aa(lp147
S'fillers/1-5'
p148
aI1162
aasg18
g19
sg20
g21
sg22
g23
sg24
g25
sa(dp149
g2
g3
sg4
g39
sg6
(lp150
(lp151
S'fillers/0-1'
p152
aI1104
aa(lp153
S'fillers/0-2-3'
p154
aI1090
aa(lp155
S'fillers/0-3'
p156
aI1136
aa(lp157
S'fillers/0-4'
p158
aI1137
aa(lp159
S'fillers/0-5'
p160
aI1183
aasg18
g19
sg20
g21
sg22
g23
sg24
g25
sa(dp161
g2
g3
sg4
g5
sg6
(lp162
(lp163
S'chords/3-1'
p164
aI1137
aa(lp165
S'chords/3-2'
p166
aI994
aa(lp167
S'chords/3-3'
p168
aI1086
aa(lp169
S'chords/3-4-1'
p170
aI950
aa(lp171
S'chords/3-5'
p172
aI1180
aasg18
g19
sg20
g51
sg22
g52
sg24
g25
sa(dp173
g2
g3
sg4
g5
sg6
(lp174
(lp175
S'chords/1-1'
p176
aI1210
aa(lp177
S'chords/1-2'
p178
aI1783
aa(lp179
S'chords/1-3'
p180
aI1557
aa(lp181
S'chords/1-4-1'
p182
aI1437
aa(lp183
S'chords/1-5'
p184
aI1488
aasg18
g19
sg20
g51
sg22
g52
sg24
g25
sa(dp185
g2
g3
sg4
g5
sg6
(lp186
(lp187
S'chords/2-1'
p188
aI1171
aa(lp189
S'chords/2-2'
p190
aI1418
aa(lp191
S'chords/2-3'
p192
aI1204
aa(lp193
S'chords/2-4-1'
p194
aI1159
aa(lp195
S'chords/2-5'
p196
aI1272
aasg18
g19
sg20
g51
sg22
g52
sg24
g25
sa(dp197
g2
g3
sg4
g39
sg6
(lp198
(lp199
S'chords/3-1'
p200
aI1197
aa(lp201
S'chords/3-2'
p202
aI903
aa(lp203
S'chords/3-3'
p204
aI1197
aa(lp205
S'chords/3-4-3'
p206
aI1763
aa(lp207
S'chords/3-5'
p208
aI1391
aasg18
g19
sg20
g51
sg22
g52
sg24
g25
sa(dp209
g2
g3
sg4
g39
sg6
(lp210
(lp211
S'fillers/2-1'
p212
aI1322
aa(lp213
S'fillers/2-2-3'
p214
aI1624
aa(lp215
S'fillers/2-3'
p216
aI1463
aa(lp217
S'fillers/2-4'
p218
aI1482
aa(lp219
S'fillers/2-5'
p220
aI1968
aasg18
g19
sg20
g21
sg22
g23
sg24
g25
sa(dp221
g2
g3
sg4
g5
sg6
(lp222
(lp223
S'chords/0-1'
p224
aI1511
aa(lp225
S'chords/0-2'
p226
aI1481
aa(lp227
S'chords/0-3'
p228
aI1489
aa(lp229
S'chords/0-4-1'
p230
aI1155
aa(lp231
S'chords/0-5'
p232
aI1224
aasg18
g19
sg20
g51
sg22
g52
sg24
g25
sa(dp233
g2
g3
sg4
g3
sg6
(lp234
(lp235
S'chords/3-1'
p236
aI1458
aa(lp237
S'chords/3-2'
p238
aI1737
aa(lp239
S'chords/3-3'
p240
aI1556
aa(lp241
S'chords/3-4-2'
p242
aI1345
aa(lp243
S'chords/3-5'
p244
aI1625
aasg18
g19
sg20
g51
sg22
g52
sg24
g25
sa(dp245
g2
g3
sg4
g3
sg6
(lp246
(lp247
S'fillers/0-1'
p248
aI1266
aa(lp249
S'fillers/0-2-2'
p250
aI1088
aa(lp251
S'fillers/0-3'
p252
aI1204
aa(lp253
S'fillers/0-4'
p254
aI784
aa(lp255
S'fillers/0-5'
p256
aI1106
aasg18
g19
sg20
g21
sg22
g23
sg24
g25
sa(dp257
g2
g3
sg4
g39
sg6
(lp258
(lp259
S'chords/1-1'
p260
aI1146
aa(lp261
S'chords/1-2'
p262
aI1272
aa(lp263
S'chords/1-3'
p264
aI813
aa(lp265
S'chords/1-4-3'
p266
aI3568
aa(lp267
S'chords/1-5'
p268
aI4390
aasg18
g19
sg20
g51
sg22
g52
sg24
g25
sa(dp269
g2
g3
sg4
g3
sg6
(lp270
(lp271
S'chords/2-1'
p272
aI1246
aa(lp273
S'chords/2-2'
p274
aI1487
aa(lp275
S'chords/2-3'
p276
aI1506
aa(lp277
S'chords/2-4-2'
p278
aI1527
aa(lp279
S'chords/2-5'
p280
aI1951
aasg18
g19
sg20
g51
sg22
g52
sg24
g25
sa(dp281
g2
g3
sg4
g5
sg6
(lp282
(lp283
S'fillers/3-1'
p284
aI1073
aa(lp285
S'fillers/3-2-1'
p286
aI1041
aa(lp287
S'fillers/3-3'
p288
aI1139
aa(lp289
S'fillers/3-4'
p290
aI1042
aa(lp291
S'fillers/3-5'
p292
aI1155
aasg18
g19
sg20
g21
sg22
g23
sg24
g25
sa(dp293
g2
g3
sg4
g39
sg6
(lp294
(lp295
S'chords/2-1'
p296
aI1371
aa(lp297
S'chords/2-2'
p298
aI1531
aa(lp299
S'chords/2-3'
p300
aI1626
aa(lp301
S'chords/2-4-3'
p302
aI1463
aa(lp303
S'chords/2-5'
p304
aI1601
aasg18
g19
sg20
g51
sg22
g52
sg24
g25
sa.