(lp0
(dp1
S'total.listening.time'
p2
I7517
sS'transposition'
p3
S'2'
p4
sS'dir'
p5
S'chords/'
p6
sS'experiment'
p7
g4
sS'condition'
p8
S'B'
p9
sS'chunks'
p10
(lp11
(lp12
S'chords/2-1'
p13
aI1585
aa(lp14
S'chords/2-2'
p15
aI1303
aa(lp16
S'chords/2-3'
p17
aI1117
aa(lp18
S'chords/2-4'
p19
aI1068
aa(lp20
S'chords/2-5-2'
p21
aI892
aa(lp22
S'chords/2-6'
p23
aI716
aa(lp24
S'chords/2-6'
p25
aI836
aasS'subject'
p26
S'mm'
p27
sS'type'
p28
S'experimental_trial'
p29
sS'response'
p30
S'Somewhat complete'
p31
sS'response_time'
p32
I2057
sS'pilot'
p33
S'1'
p34
sa(dp35
g2
I3214
sg3
S'5'
p36
sg5
g6
sg7
g4
sg8
S'A'
p37
sg10
(lp38
(lp39
S'chords/5-1'
p40
aI530
aa(lp41
S'chords/5-2'
p42
aI523
aa(lp43
S'chords/5-3'
p44
aI455
aa(lp45
S'chords/5-4'
p46
aI353
aa(lp47
S'chords/5-5-1'
p48
aI424
aa(lp49
S'chords/5-6'
p50
aI479
aa(lp51
S'chords/5-6'
p52
aI450
aasg26
g27
sg28
g29
sg30
g31
sg32
I667
sg33
g34
sa(dp53
g2
I2671
sg3
S'1'
p54
sg5
S'fillers/'
p55
sg7
g4
sg8
S'3'
p56
sg10
(lp57
(lp58
S'fillers/1-1'
p59
aI357
aa(lp60
S'fillers/1-2'
p61
aI372
aa(lp62
S'fillers/1-3-3'
p63
aI383
aa(lp64
S'fillers/1-4'
p65
aI391
aa(lp66
S'fillers/1-5'
p67
aI357
aa(lp68
S'fillers/1-6'
p69
aI373
aa(lp70
S'fillers/1-7'
p71
aI438
aasg26
g27
sg28
S'filler'
p72
sg30
g31
sg32
I695
sg33
g34
sa(dp73
g2
I609
sg3
S'0'
p74
sg5
g55
sg7
g4
sg8
g54
sg10
(lp75
(lp76
S'fillers/0-1'
p77
aI257
aa(lp78
S'fillers/0-2'
p79
aI352
aa(lp80
S'fillers/0-3-1'
p81
aI0
aa(lp82
S'fillers/0-4'
p83
aI0
aa(lp84
S'fillers/0-5'
p85
aI0
aa(lp86
S'fillers/0-6'
p87
aI0
aa(lp88
S'fillers/0-7'
p89
aI0
aasg26
g27
sg28
g72
sg30
S'NA'
p90
sg32
g90
sg33
g34
sa(dp91
g2
I0
sg3
g4
sg5
g6
sg7
g4
sg8
g37
sg10
(lp92
(lp93
S'chords/2-1'
p94
aI0
aa(lp95
S'chords/2-2'
p96
aI0
aa(lp97
S'chords/2-3'
p98
aI0
aa(lp99
S'chords/2-4'
p100
aI0
aa(lp101
S'chords/2-5-1'
p102
aI0
aa(lp103
S'chords/2-6'
p104
aI0
aa(lp105
S'chords/2-6'
p106
aI0
aasg26
g27
sg28
g29
sg30
g90
sg32
g90
sg33
g34
sa(dp107
g2
I0
sg3
g54
sg5
g6
sg7
g4
sg8
g9
sg10
(lp108
(lp109
S'chords/1-1'
p110
aI0
aa(lp111
S'chords/1-2'
p112
aI0
aa(lp113
S'chords/1-3'
p114
aI0
aa(lp115
S'chords/1-4'
p116
aI0
aa(lp117
S'chords/1-5-2'
p118
aI0
aa(lp119
S'chords/1-6'
p120
aI0
aa(lp121
S'chords/1-6'
p122
aI0
aasg26
g27
sg28
g29
sg30
g90
sg32
g90
sg33
g34
sa(dp123
g2
I0
sg3
g54
sg5
g6
sg7
g4
sg8
g37
sg10
(lp124
(lp125
S'chords/1-1'
p126
aI0
aa(lp127
S'chords/1-2'
p128
aI0
aa(lp129
S'chords/1-3'
p130
aI0
aa(lp131
S'chords/1-4'
p132
aI0
aa(lp133
S'chords/1-5-1'
p134
aI0
aa(lp135
S'chords/1-6'
p136
aI0
aa(lp137
S'chords/1-6'
p138
aI0
aasg26
g27
sg28
g29
sg30
g90
sg32
g90
sg33
g34
sa(dp139
g2
I0
sg3
g56
sg5
g6
sg7
g4
sg8
S'C'
p140
sg10
(lp141
(lp142
S'chords/3-1'
p143
aI0
aa(lp144
S'chords/3-2'
p145
aI0
aa(lp146
S'chords/3-3'
p147
aI0
aa(lp148
S'chords/3-4'
p149
aI0
aa(lp150
S'chords/3-5-3'
p151
aI0
aa(lp152
S'chords/3-6'
p153
aI0
aa(lp154
S'chords/3-6'
p155
aI0
aasg26
g27
sg28
g29
sg30
g90
sg32
g90
sg33
g34
sa(dp156
g2
I0
sg3
g74
sg5
g6
sg7
g4
sg8
g37
sg10
(lp157
(lp158
S'chords/0-1'
p159
aI0
aa(lp160
S'chords/0-2'
p161
aI0
aa(lp162
S'chords/0-3'
p163
aI0
aa(lp164
S'chords/0-4'
p165
aI0
aa(lp166
S'chords/0-5-1'
p167
aI0
aa(lp168
S'chords/0-6'
p169
aI0
aa(lp170
S'chords/0-6'
p171
aI0
aasg26
g27
sg28
g29
sg30
g90
sg32
g90
sg33
g34
sa(dp172
g2
I0
sg3
g4
sg5
g55
sg7
g4
sg8
g4
sg10
(lp173
(lp174
S'fillers/2-1'
p175
aI0
aa(lp176
S'fillers/2-2'
p177
aI0
aa(lp178
S'fillers/2-3-2'
p179
aI0
aa(lp180
S'fillers/2-4'
p181
aI0
aa(lp182
S'fillers/2-5'
p183
aI0
aa(lp184
S'fillers/2-6'
p185
aI0
aa(lp186
S'fillers/2-7'
p187
aI0
aasg26
g27
sg28
g72
sg30
g90
sg32
g90
sg33
g34
sa(dp188
g2
I0
sg3
g54
sg5
g55
sg7
g4
sg8
g4
sg10
(lp189
(lp190
S'fillers/1-1'
p191
aI0
aa(lp192
S'fillers/1-2'
p193
aI0
aa(lp194
S'fillers/1-3-2'
p195
aI0
aa(lp196
S'fillers/1-4'
p197
aI0
aa(lp198
S'fillers/1-5'
p199
aI0
aa(lp200
S'fillers/1-6'
p201
aI0
aa(lp202
S'fillers/1-7'
p203
aI0
aasg26
g27
sg28
g72
sg30
g90
sg32
g90
sg33
g34
sa(dp204
g2
I0
sg3
g54
sg5
g6
sg7
g4
sg8
g140
sg10
(lp205
(lp206
S'chords/1-1'
p207
aI0
aa(lp208
S'chords/1-2'
p209
aI0
aa(lp210
S'chords/1-3'
p211
aI0
aa(lp212
S'chords/1-4'
p213
aI0
aa(lp214
S'chords/1-5-3'
p215
aI0
aa(lp216
S'chords/1-6'
p217
aI0
aa(lp218
S'chords/1-6'
p219
aI0
aasg26
g27
sg28
g29
sg30
g90
sg32
g90
sg33
g34
sa(dp220
g2
I0
sg3
g4
sg5
g55
sg7
g4
sg8
g56
sg10
(lp221
(lp222
S'fillers/2-1'
p223
aI0
aa(lp224
S'fillers/2-2'
p225
aI0
aa(lp226
S'fillers/2-3-3'
p227
aI0
aa(lp228
S'fillers/2-4'
p229
aI0
aa(lp230
S'fillers/2-5'
p231
aI0
aa(lp232
S'fillers/2-6'
p233
aI0
aa(lp234
S'fillers/2-7'
p235
aI0
aasg26
g27
sg28
g72
sg30
g90
sg32
g90
sg33
g34
sa(dp236
g2
I0
sg3
g36
sg5
g6
sg7
g4
sg8
g9
sg10
(lp237
(lp238
S'chords/5-1'
p239
aI0
aa(lp240
S'chords/5-2'
p241
aI0
aa(lp242
S'chords/5-3'
p243
aI0
aa(lp244
S'chords/5-4'
p245
aI0
aa(lp246
S'chords/5-5-2'
p247
aI0
aa(lp248
S'chords/5-6'
p249
aI0
aa(lp250
S'chords/5-6'
p251
aI0
aasg26
g27
sg28
g29
sg30
g90
sg32
g90
sg33
g34
sa(dp252
g2
I0
sg3
g56
sg5
g6
sg7
g4
sg8
g9
sg10
(lp253
(lp254
S'chords/3-1'
p255
aI0
aa(lp256
S'chords/3-2'
p257
aI0
aa(lp258
S'chords/3-3'
p259
aI0
aa(lp260
S'chords/3-4'
p261
aI0
aa(lp262
S'chords/3-5-2'
p263
aI0
aa(lp264
S'chords/3-6'
p265
aI0
aa(lp266
S'chords/3-6'
p267
aI0
aasg26
g27
sg28
g29
sg30
g90
sg32
g90
sg33
g34
sa(dp268
g2
I0
sg3
S'4'
p269
sg5
g6
sg7
g4
sg8
g140
sg10
(lp270
(lp271
S'chords/4-1'
p272
aI0
aa(lp273
S'chords/4-2'
p274
aI0
aa(lp275
S'chords/4-3'
p276
aI0
aa(lp277
S'chords/4-4'
p278
aI0
aa(lp279
S'chords/4-5-3'
p280
aI0
aa(lp281
S'chords/4-6'
p282
aI0
aa(lp283
S'chords/4-6'
p284
aI0
aasg26
g27
sg28
g29
sg30
g90
sg32
g90
sg33
g34
sa(dp285
g2
I0
sg3
g74
sg5
g6
sg7
g4
sg8
g9
sg10
(lp286
(lp287
S'chords/0-1'
p288
aI0
aa(lp289
S'chords/0-2'
p290
aI0
aa(lp291
S'chords/0-3'
p292
aI0
aa(lp293
S'chords/0-4'
p294
aI0
aa(lp295
S'chords/0-5-2'
p296
aI0
aa(lp297
S'chords/0-6'
p298
aI0
aa(lp299
S'chords/0-6'
p300
aI0
aasg26
g27
sg28
g29
sg30
g90
sg32
g90
sg33
g34
sa(dp301
g2
I0
sg3
g74
sg5
g55
sg7
g4
sg8
g4
sg10
(lp302
(lp303
S'fillers/0-1'
p304
aI0
aa(lp305
S'fillers/0-2'
p306
aI0
aa(lp307
S'fillers/0-3-2'
p308
aI0
aa(lp309
S'fillers/0-4'
p310
aI0
aa(lp311
S'fillers/0-5'
p312
aI0
aa(lp313
S'fillers/0-6'
p314
aI0
aa(lp315
S'fillers/0-7'
p316
aI0
aasg26
g27
sg28
g72
sg30
g90
sg32
g90
sg33
g34
sa(dp317
g2
I0
sg3
g4
sg5
g55
sg7
g4
sg8
g54
sg10
(lp318
(lp319
S'fillers/2-1'
p320
aI0
aa(lp321
S'fillers/2-2'
p322
aI0
aa(lp323
S'fillers/2-3-1'
p324
aI0
aa(lp325
S'fillers/2-4'
p326
aI0
aa(lp327
S'fillers/2-5'
p328
aI0
aa(lp329
S'fillers/2-6'
p330
aI0
aa(lp331
S'fillers/2-7'
p332
aI0
aasg26
g27
sg28
g72
sg30
g90
sg32
g90
sg33
g34
sa(dp333
g2
I0
sg3
g74
sg5
g55
sg7
g4
sg8
g56
sg10
(lp334
(lp335
S'fillers/0-1'
p336
aI0
aa(lp337
S'fillers/0-2'
p338
aI0
aa(lp339
S'fillers/0-3-3'
p340
aI0
aa(lp341
S'fillers/0-4'
p342
aI0
aa(lp343
S'fillers/0-5'
p344
aI0
aa(lp345
S'fillers/0-6'
p346
aI0
aa(lp347
S'fillers/0-7'
p348
aI0
aasg26
g27
sg28
g72
sg30
g90
sg32
g90
sg33
g34
sa(dp349
g2
I0
sg3
g54
sg5
g55
sg7
g4
sg8
g54
sg10
(lp350
(lp351
S'fillers/1-1'
p352
aI0
aa(lp353
S'fillers/1-2'
p354
aI0
aa(lp355
S'fillers/1-3-1'
p356
aI0
aa(lp357
S'fillers/1-4'
p358
aI0
aa(lp359
S'fillers/1-5'
p360
aI0
aa(lp361
S'fillers/1-6'
p362
aI0
aa(lp363
S'fillers/1-7'
p364
aI0
aasg26
g27
sg28
g72
sg30
g90
sg32
g90
sg33
g34
sa(dp365
g2
I0
sg3
g36
sg5
g6
sg7
g4
sg8
g140
sg10
(lp366
(lp367
S'chords/5-1'
p368
aI0
aa(lp369
S'chords/5-2'
p370
aI0
aa(lp371
S'chords/5-3'
p372
aI0
aa(lp373
S'chords/5-4'
p374
aI0
aa(lp375
S'chords/5-5-3'
p376
aI0
aa(lp377
S'chords/5-6'
p378
aI0
aa(lp379
S'chords/5-6'
p380
aI0
aasg26
g27
sg28
g29
sg30
g90
sg32
g90
sg33
g34
sa(dp381
g2
I0
sg3
g56
sg5
g6
sg7
g4
sg8
g37
sg10
(lp382
(lp383
S'chords/3-1'
p384
aI0
aa(lp385
S'chords/3-2'
p386
aI0
aa(lp387
S'chords/3-3'
p388
aI0
aa(lp389
S'chords/3-4'
p390
aI0
aa(lp391
S'chords/3-5-1'
p392
aI0
aa(lp393
S'chords/3-6'
p394
aI0
aa(lp395
S'chords/3-6'
p396
aI0
aasg26
g27
sg28
g29
sg30
g90
sg32
g90
sg33
g34
sa(dp397
g2
I0
sg3
g269
sg5
g6
sg7
g4
sg8
g9
sg10
(lp398
(lp399
S'chords/4-1'
p400
aI0
aa(lp401
S'chords/4-2'
p402
aI0
aa(lp403
S'chords/4-3'
p404
aI0
aa(lp405
S'chords/4-4'
p406
aI0
aa(lp407
S'chords/4-5-2'
p408
aI0
aa(lp409
S'chords/4-6'
p410
aI0
aa(lp411
S'chords/4-6'
p412
aI0
aasg26
g27
sg28
g29
sg30
g90
sg32
g90
sg33
g34
sa(dp413
g2
I0
sg3
g4
sg5
g6
sg7
g4
sg8
g140
sg10
(lp414
(lp415
S'chords/2-1'
p416
aI0
aa(lp417
S'chords/2-2'
p418
aI0
aa(lp419
S'chords/2-3'
p420
aI0
aa(lp421
S'chords/2-4'
p422
aI0
aa(lp423
S'chords/2-5-3'
p424
aI0
aa(lp425
S'chords/2-6'
p426
aI0
aa(lp427
S'chords/2-6'
p428
aI0
aasg26
g27
sg28
g29
sg30
g90
sg32
g90
sg33
g34
sa(dp429
g2
I0
sg3
g269
sg5
g6
sg7
g4
sg8
g37
sg10
(lp430
(lp431
S'chords/4-1'
p432
aI0
aa(lp433
S'chords/4-2'
p434
aI0
aa(lp435
S'chords/4-3'
p436
aI0
aa(lp437
S'chords/4-4'
p438
aI0
aa(lp439
S'chords/4-5-1'
p440
aI0
aa(lp441
S'chords/4-6'
p442
aI0
aa(lp443
S'chords/4-6'
p444
aI0
aasg26
g27
sg28
g29
sg30
g90
sg32
g90
sg33
g34
sa(dp445
g2
I0
sg3
g74
sg5
g6
sg7
g4
sg8
g140
sg10
(lp446
(lp447
S'chords/0-1'
p448
aI0
aa(lp449
S'chords/0-2'
p450
aI0
aa(lp451
S'chords/0-3'
p452
aI0
aa(lp453
S'chords/0-4'
p454
aI0
aa(lp455
S'chords/0-5-3'
p456
aI0
aa(lp457
S'chords/0-6'
p458
aI0
aa(lp459
S'chords/0-6'
p460
aI0
aasg26
g27
sg28
g29
sg30
g90
sg32
g90
sg33
g34
sa.