(lp0
(dp1
S'total.listening.time'
p2
I13217
sS'transposition'
p3
S'1'
p4
sS'dir'
p5
S'fillers/'
p6
sS'experiment'
p7
S'2'
p8
sS'condition'
p9
S'3'
p10
sS'chunks'
p11
(lp12
(lp13
S'fillers/1-1'
p14
aI1977
aa(lp15
S'fillers/1-2'
p16
aI1850
aa(lp17
S'fillers/1-3-3'
p18
aI1870
aa(lp19
S'fillers/1-4'
p20
aI1800
aa(lp21
S'fillers/1-5'
p22
aI1927
aa(lp23
S'fillers/1-6'
p24
aI1893
aa(lp25
S'fillers/1-7'
p26
aI1900
aasS'subject'
p27
S'mm'
p28
sS'type'
p29
S'filler'
p30
sS'response'
p31
S'Somewhat incomplete'
p32
sS'response_time'
p33
I3994
sS'pilot'
p34
S'1'
p35
sa(dp36
g2
I14463
sg3
g8
sg5
g6
sg7
g8
sg9
g10
sg11
(lp37
(lp38
S'fillers/2-1'
p39
aI1659
aa(lp40
S'fillers/2-2'
p41
aI1802
aa(lp42
S'fillers/2-3-3'
p43
aI1954
aa(lp44
S'fillers/2-4'
p45
aI2473
aa(lp46
S'fillers/2-5'
p47
aI2600
aa(lp48
S'fillers/2-6'
p49
aI2083
aa(lp50
S'fillers/2-7'
p51
aI1892
aasg27
g28
sg29
g30
sg31
g32
sg33
I2374
sg34
g35
sa(dp52
g2
I15963
sg3
g10
sg5
g6
sg7
g8
sg9
g4
sg11
(lp53
(lp54
S'fillers/3-1'
p55
aI3075
aa(lp56
S'fillers/3-2'
p57
aI2574
aa(lp58
S'fillers/3-3-1'
p59
aI1884
aa(lp60
S'fillers/3-4'
p61
aI2126
aa(lp62
S'fillers/3-5'
p63
aI2216
aa(lp64
S'fillers/3-6'
p65
aI1985
aa(lp66
S'fillers/3-7'
p67
aI2103
aasg27
g28
sg29
g30
sg31
S'Somewhat complete'
p68
sg33
I2113
sg34
g35
sa(dp69
g2
I11723
sg3
g4
sg5
S'chords/'
p70
sg7
g8
sg9
S'A'
p71
sg11
(lp72
(lp73
S'chords/1-1'
p74
aI1364
aa(lp75
S'chords/1-2'
p76
aI1324
aa(lp77
S'chords/1-3'
p78
aI1480
aa(lp79
S'chords/1-4'
p80
aI1661
aa(lp81
S'chords/1-5-1'
p82
aI1807
aa(lp83
S'chords/1-6'
p84
aI2318
aa(lp85
S'chords/1-6'
p86
aI1769
aasg27
g28
sg29
S'experimental_trial'
p87
sg31
S'Totally complete'
p88
sg33
I2174
sg34
g35
sa(dp89
g2
I9363
sg3
g10
sg5
g70
sg7
g8
sg9
g71
sg11
(lp90
(lp91
S'chords/3-1'
p92
aI1193
aa(lp93
S'chords/3-2'
p94
aI1253
aa(lp95
S'chords/3-3'
p96
aI1232
aa(lp97
S'chords/3-4'
p98
aI1369
aa(lp99
S'chords/3-5-1'
p100
aI1351
aa(lp101
S'chords/3-6'
p102
aI1427
aa(lp103
S'chords/3-6'
p104
aI1538
aasg27
g28
sg29
g87
sg31
g68
sg33
I2262
sg34
g35
sa(dp105
g2
I12152
sg3
g8
sg5
g70
sg7
g8
sg9
S'C'
p106
sg11
(lp107
(lp108
S'chords/2-1'
p109
aI1000
aa(lp110
S'chords/2-2'
p111
aI1807
aa(lp112
S'chords/2-3'
p113
aI1603
aa(lp114
S'chords/2-4'
p115
aI1727
aa(lp116
S'chords/2-5-3'
p117
aI1964
aa(lp118
S'chords/2-6'
p119
aI2112
aa(lp120
S'chords/2-6'
p121
aI1939
aasg27
g28
sg29
g87
sg31
g88
sg33
I1903
sg34
g35
sa(dp122
g2
I12193
sg3
S'4'
p123
sg5
g70
sg7
g8
sg9
g71
sg11
(lp124
(lp125
S'chords/4-1'
p126
aI1046
aa(lp127
S'chords/4-2'
p128
aI2580
aa(lp129
S'chords/4-3'
p130
aI1834
aa(lp131
S'chords/4-4'
p132
aI2337
aa(lp133
S'chords/4-5-1'
p134
aI1615
aa(lp135
S'chords/4-6'
p136
aI1464
aa(lp137
S'chords/4-6'
p138
aI1317
aasg27
g28
sg29
g87
sg31
g68
sg33
I2731
sg34
g35
sa(dp139
g2
I12406
sg3
g8
sg5
g70
sg7
g8
sg9
S'B'
p140
sg11
(lp141
(lp142
S'chords/2-1'
p143
aI1713
aa(lp144
S'chords/2-2'
p145
aI1589
aa(lp146
S'chords/2-3'
p147
aI1709
aa(lp148
S'chords/2-4'
p149
aI1754
aa(lp150
S'chords/2-5-2'
p151
aI2149
aa(lp152
S'chords/2-6'
p153
aI1788
aa(lp154
S'chords/2-6'
p155
aI1704
aasg27
g28
sg29
g87
sg31
g32
sg33
I2297
sg34
g35
sa(dp156
g2
I9053
sg3
g10
sg5
g6
sg7
g8
sg9
g10
sg11
(lp157
(lp158
S'fillers/3-1'
p159
aI1009
aa(lp160
S'fillers/3-2'
p161
aI1178
aa(lp162
S'fillers/3-3-3'
p163
aI1229
aa(lp164
S'fillers/3-4'
p165
aI1349
aa(lp166
S'fillers/3-5'
p167
aI1069
aa(lp168
S'fillers/3-6'
p169
aI1500
aa(lp170
S'fillers/3-7'
p171
aI1719
aasg27
g28
sg29
g30
sg31
g32
sg33
I4231
sg34
g35
sa(dp172
g2
I7408
sg3
S'5'
p173
sg5
g70
sg7
g8
sg9
g71
sg11
(lp174
(lp175
S'chords/5-1'
p176
aI1034
aa(lp177
S'chords/5-2'
p178
aI1149
aa(lp179
S'chords/5-3'
p180
aI1108
aa(lp181
S'chords/5-4'
p182
aI926
aa(lp183
S'chords/5-5-1'
p184
aI1027
aa(lp185
S'chords/5-6'
p186
aI1077
aa(lp187
S'chords/5-6'
p188
aI1087
aasg27
g28
sg29
g87
sg31
g68
sg33
I1133
sg34
g35
sa(dp189
g2
I7099
sg3
g8
sg5
g6
sg7
g8
sg9
g8
sg11
(lp190
(lp191
S'fillers/2-1'
p192
aI935
aa(lp193
S'fillers/2-2'
p194
aI1055
aa(lp195
S'fillers/2-3-2'
p196
aI1002
aa(lp197
S'fillers/2-4'
p198
aI827
aa(lp199
S'fillers/2-5'
p200
aI875
aa(lp201
S'fillers/2-6'
p202
aI982
aa(lp203
S'fillers/2-7'
p204
aI1423
aasg27
g28
sg29
g30
sg31
g32
sg33
I2171
sg34
g35
sa(dp205
g2
I8435
sg3
g4
sg5
g70
sg7
g8
sg9
g106
sg11
(lp206
(lp207
S'chords/1-1'
p208
aI1376
aa(lp209
S'chords/1-2'
p210
aI1096
aa(lp211
S'chords/1-3'
p212
aI1181
aa(lp213
S'chords/1-4'
p214
aI1229
aa(lp215
S'chords/1-5-3'
p216
aI1286
aa(lp217
S'chords/1-6'
p218
aI1144
aa(lp219
S'chords/1-6'
p220
aI1123
aasg27
g28
sg29
g87
sg31
g88
sg33
I1817
sg34
g35
sa(dp221
g2
I6100
sg3
g10
sg5
g70
sg7
g8
sg9
g106
sg11
(lp222
(lp223
S'chords/3-1'
p224
aI958
aa(lp225
S'chords/3-2'
p226
aI1033
aa(lp227
S'chords/3-3'
p228
aI860
aa(lp229
S'chords/3-4'
p230
aI780
aa(lp231
S'chords/3-5-3'
p232
aI790
aa(lp233
S'chords/3-6'
p234
aI887
aa(lp235
S'chords/3-6'
p236
aI792
aasg27
g28
sg29
g87
sg31
g88
sg33
I797
sg34
g35
sa(dp237
g2
I6507
sg3
g4
sg5
g6
sg7
g8
sg9
g4
sg11
(lp238
(lp239
S'fillers/1-1'
p240
aI837
aa(lp241
S'fillers/1-2'
p242
aI751
aa(lp243
S'fillers/1-3-1'
p244
aI1082
aa(lp245
S'fillers/1-4'
p246
aI814
aa(lp247
S'fillers/1-5'
p248
aI973
aa(lp249
S'fillers/1-6'
p250
aI978
aa(lp251
S'fillers/1-7'
p252
aI1072
aasg27
g28
sg29
g30
sg31
g68
sg33
I1114
sg34
g35
sa(dp253
g2
I7711
sg3
g4
sg5
g70
sg7
g8
sg9
g140
sg11
(lp254
(lp255
S'chords/1-1'
p256
aI1130
aa(lp257
S'chords/1-2'
p258
aI1093
aa(lp259
S'chords/1-3'
p260
aI1091
aa(lp261
S'chords/1-4'
p262
aI1106
aa(lp263
S'chords/1-5-2'
p264
aI1114
aa(lp265
S'chords/1-6'
p266
aI1029
aa(lp267
S'chords/1-6'
p268
aI1148
aasg27
g28
sg29
g87
sg31
g32
sg33
I1108
sg34
g35
sa(dp269
g2
I9595
sg3
g10
sg5
g70
sg7
g8
sg9
g140
sg11
(lp270
(lp271
S'chords/3-1'
p272
aI913
aa(lp273
S'chords/3-2'
p274
aI953
aa(lp275
S'chords/3-3'
p276
aI1617
aa(lp277
S'chords/3-4'
p278
aI1479
aa(lp279
S'chords/3-5-2'
p280
aI1656
aa(lp281
S'chords/3-6'
p282
aI1457
aa(lp283
S'chords/3-6'
p284
aI1520
aasg27
g28
sg29
g87
sg31
g68
sg33
I2337
sg34
g35
sa(dp285
g2
I8998
sg3
S'0'
p286
sg5
g70
sg7
g8
sg9
g106
sg11
(lp287
(lp288
S'chords/0-1'
p289
aI833
aa(lp290
S'chords/0-2'
p291
aI1113
aa(lp292
S'chords/0-3'
p293
aI1076
aa(lp294
S'chords/0-4'
p295
aI1258
aa(lp296
S'chords/0-5-3'
p297
aI1302
aa(lp298
S'chords/0-6'
p299
aI1966
aa(lp300
S'chords/0-6'
p301
aI1450
aasg27
g28
sg29
g87
sg31
g68
sg33
I1379
sg34
g35
sa(dp302
g2
I8201
sg3
g10
sg5
g6
sg7
g8
sg9
g8
sg11
(lp303
(lp304
S'fillers/3-1'
p305
aI1108
aa(lp306
S'fillers/3-2'
p307
aI1195
aa(lp308
S'fillers/3-3-2'
p309
aI1032
aa(lp310
S'fillers/3-4'
p311
aI1100
aa(lp312
S'fillers/3-5'
p313
aI1250
aa(lp314
S'fillers/3-6'
p315
aI1245
aa(lp316
S'fillers/3-7'
p317
aI1271
aasg27
g28
sg29
g30
sg31
g32
sg33
I1167
sg34
g35
sa(dp318
g2
I8739
sg3
g4
sg5
g6
sg7
g8
sg9
g8
sg11
(lp319
(lp320
S'fillers/1-1'
p321
aI1216
aa(lp322
S'fillers/1-2'
p323
aI1175
aa(lp324
S'fillers/1-3-2'
p325
aI1100
aa(lp326
S'fillers/1-4'
p327
aI1156
aa(lp328
S'fillers/1-5'
p329
aI1331
aa(lp330
S'fillers/1-6'
p331
aI1153
aa(lp332
S'fillers/1-7'
p333
aI1608
aasg27
g28
sg29
g30
sg31
g68
sg33
I1664
sg34
g35
sa(dp334
g2
I11199
sg3
g123
sg5
g70
sg7
g8
sg9
g140
sg11
(lp335
(lp336
S'chords/4-1'
p337
aI1656
aa(lp338
S'chords/4-2'
p339
aI1798
aa(lp340
S'chords/4-3'
p341
aI1556
aa(lp342
S'chords/4-4'
p343
aI1470
aa(lp344
S'chords/4-5-2'
p345
aI1648
aa(lp346
S'chords/4-6'
p347
aI1621
aa(lp348
S'chords/4-6'
p349
aI1450
aasg27
g28
sg29
g87
sg31
g68
sg33
I913
sg34
g35
sa(dp350
g2
I7895
sg3
g8
sg5
g70
sg7
g8
sg9
g71
sg11
(lp351
(lp352
S'chords/2-1'
p353
aI939
aa(lp354
S'chords/2-2'
p355
aI1212
aa(lp356
S'chords/2-3'
p357
aI1116
aa(lp358
S'chords/2-4'
p359
aI1114
aa(lp360
S'chords/2-5-1'
p361
aI1155
aa(lp362
S'chords/2-6'
p363
aI1083
aa(lp364
S'chords/2-6'
p365
aI1276
aasg27
g28
sg29
g87
sg31
g32
sg33
I1030
sg34
g35
sa(dp366
g2
I7574
sg3
g286
sg5
g70
sg7
g8
sg9
g140
sg11
(lp367
(lp368
S'chords/0-1'
p369
aI1114
aa(lp370
S'chords/0-2'
p371
aI1168
aa(lp372
S'chords/0-3'
p373
aI1064
aa(lp374
S'chords/0-4'
p375
aI1090
aa(lp376
S'chords/0-5-2'
p377
aI1089
aa(lp378
S'chords/0-6'
p379
aI981
aa(lp380
S'chords/0-6'
p381
aI1068
aasg27
g28
sg29
g87
sg31
g68
sg33
I1426
sg34
g35
sa(dp382
g2
I7289
sg3
g173
sg5
g70
sg7
g8
sg9
g140
sg11
(lp383
(lp384
S'chords/5-1'
p385
aI962
aa(lp386
S'chords/5-2'
p387
aI1170
aa(lp388
S'chords/5-3'
p389
aI954
aa(lp390
S'chords/5-4'
p391
aI1302
aa(lp392
S'chords/5-5-2'
p393
aI1260
aa(lp394
S'chords/5-6'
p395
aI816
aa(lp396
S'chords/5-6'
p397
aI825
aasg27
g28
sg29
g87
sg31
g32
sg33
I2565
sg34
g35
sa(dp398
g2
I6503
sg3
g8
sg5
g6
sg7
g8
sg9
g4
sg11
(lp399
(lp400
S'fillers/2-1'
p401
aI755
aa(lp402
S'fillers/2-2'
p403
aI816
aa(lp404
S'fillers/2-3-1'
p405
aI898
aa(lp406
S'fillers/2-4'
p407
aI948
aa(lp408
S'fillers/2-5'
p409
aI1014
aa(lp410
S'fillers/2-6'
p411
aI1049
aa(lp412
S'fillers/2-7'
p413
aI1023
aasg27
g28
sg29
g30
sg31
g32
sg33
I877
sg34
g35
sa(dp414
g2
I6985
sg3
g173
sg5
g70
sg7
g8
sg9
g106
sg11
(lp415
(lp416
S'chords/5-1'
p417
aI1043
aa(lp418
S'chords/5-2'
p419
aI1016
aa(lp420
S'chords/5-3'
p421
aI1007
aa(lp422
S'chords/5-4'
p423
aI841
aa(lp424
S'chords/5-5-3'
p425
aI969
aa(lp426
S'chords/5-6'
p427
aI935
aa(lp428
S'chords/5-6'
p429
aI1174
aasg27
g28
sg29
g87
sg31
g32
sg33
I847
sg34
g35
sa(dp430
g2
I8864
sg3
g286
sg5
g70
sg7
g8
sg9
g71
sg11
(lp431
(lp432
S'chords/0-1'
p433
aI1168
aa(lp434
S'chords/0-2'
p435
aI1044
aa(lp436
S'chords/0-3'
p437
aI1104
aa(lp438
S'chords/0-4'
p439
aI1265
aa(lp440
S'chords/0-5-1'
p441
aI1030
aa(lp442
S'chords/0-6'
p443
aI1935
aa(lp444
S'chords/0-6'
p445
aI1318
aasg27
g28
sg29
g87
sg31
g32
sg33
I966
sg34
g35
sa(dp446
g2
I7443
sg3
g123
sg5
g70
sg7
g8
sg9
g106
sg11
(lp447
(lp448
S'chords/4-1'
p449
aI1451
aa(lp450
S'chords/4-2'
p451
aI1459
aa(lp452
S'chords/4-3'
p453
aI905
aa(lp454
S'chords/4-4'
p455
aI1078
aa(lp456
S'chords/4-5-3'
p457
aI944
aa(lp458
S'chords/4-6'
p459
aI781
aa(lp460
S'chords/4-6'
p461
aI825
aasg27
g28
sg29
g87
sg31
g32
sg33
I919
sg34
g35
sa.