(lp0
(dp1
S'total.listening.time'
p2
I3066
sS'transposition'
p3
S'1'
p4
sS'dir'
p5
S'chords/'
p6
sS'experiment'
p7
S'2'
p8
sS'condition'
p9
S'C'
p10
sS'chunks'
p11
(lp12
(lp13
S'chords/1-1'
p14
aI613
aa(lp15
S'chords/1-2'
p16
aI387
aa(lp17
S'chords/1-3'
p18
aI479
aa(lp19
S'chords/1-4'
p20
aI413
aa(lp21
S'chords/1-5-3'
p22
aI386
aa(lp23
S'chords/1-6'
p24
aI390
aa(lp25
S'chords/1-6'
p26
aI398
aasS'subject'
p27
S'mm'
p28
sS'type'
p29
S'experimental_trial'
p30
sS'response'
p31
S'Somewhat complete'
p32
sS'response_time'
p33
I1055
sS'pilot'
p34
S'1'
p35
sa(dp36
g2
I1544
sg3
g8
sg5
S'fillers/'
p37
sg7
g8
sg9
g4
sg11
(lp38
(lp39
S'fillers/2-1'
p40
aI209
aa(lp41
S'fillers/2-2'
p42
aI193
aa(lp43
S'fillers/2-3-1'
p44
aI231
aa(lp45
S'fillers/2-4'
p46
aI247
aa(lp47
S'fillers/2-5'
p48
aI220
aa(lp49
S'fillers/2-6'
p50
aI206
aa(lp51
S'fillers/2-7'
p52
aI238
aasg27
g28
sg29
S'filler'
p53
sg31
g32
sg33
I640
sg34
g35
sa(dp54
g2
I1201
sg3
S'3'
p55
sg5
g37
sg7
g8
sg9
g4
sg11
(lp56
(lp57
S'fillers/3-1'
p58
aI186
aa(lp59
S'fillers/3-2'
p60
aI173
aa(lp61
S'fillers/3-3-1'
p62
aI153
aa(lp63
S'fillers/3-4'
p64
aI161
aa(lp65
S'fillers/3-5'
p66
aI197
aa(lp67
S'fillers/3-6'
p68
aI170
aa(lp69
S'fillers/3-7'
p70
aI161
aasg27
g28
sg29
g53
sg31
g32
sg33
I1313
sg34
g35
sa(dp71
g2
I1046
sg3
g55
sg5
g37
sg7
g8
sg9
g55
sg11
(lp72
(lp73
S'fillers/3-1'
p74
aI184
aa(lp75
S'fillers/3-2'
p76
aI146
aa(lp77
S'fillers/3-3-3'
p78
aI146
aa(lp79
S'fillers/3-4'
p80
aI146
aa(lp81
S'fillers/3-5'
p82
aI142
aa(lp83
S'fillers/3-6'
p84
aI135
aa(lp85
S'fillers/3-7'
p86
aI147
aasg27
g28
sg29
g53
sg31
g32
sg33
I590
sg34
g35
sa(dp87
g2
I1965
sg3
g8
sg5
g6
sg7
g8
sg9
g10
sg11
(lp88
(lp89
S'chords/2-1'
p90
aI174
aa(lp91
S'chords/2-2'
p92
aI153
aa(lp93
S'chords/2-3'
p94
aI137
aa(lp95
S'chords/2-4'
p96
aI152
aa(lp97
S'chords/2-5-3'
p98
aI149
aa(lp99
S'chords/2-6'
p100
aI599
aa(lp101
S'chords/2-6'
p102
aI601
aasg27
g28
sg29
g30
sg31
g32
sg33
I676
sg34
g35
sa(dp103
g2
I2341
sg3
g55
sg5
g6
sg7
g8
sg9
S'A'
p104
sg11
(lp105
(lp106
S'chords/3-1'
p107
aI315
aa(lp108
S'chords/3-2'
p109
aI295
aa(lp110
S'chords/3-3'
p111
aI298
aa(lp112
S'chords/3-4'
p113
aI286
aa(lp114
S'chords/3-5-1'
p115
aI374
aa(lp116
S'chords/3-6'
p117
aI353
aa(lp118
S'chords/3-6'
p119
aI420
aasg27
g28
sg29
g30
sg31
g32
sg33
I566
sg34
g35
sa(dp120
g2
I2217
sg3
S'5'
p121
sg5
g6
sg7
g8
sg9
g10
sg11
(lp122
(lp123
S'chords/5-1'
p124
aI254
aa(lp125
S'chords/5-2'
p126
aI252
aa(lp127
S'chords/5-3'
p128
aI258
aa(lp129
S'chords/5-4'
p130
aI260
aa(lp131
S'chords/5-5-3'
p132
aI261
aa(lp133
S'chords/5-6'
p134
aI314
aa(lp135
S'chords/5-6'
p136
aI618
aasg27
g28
sg29
g30
sg31
g32
sg33
I1050
sg34
g35
sa(dp137
g2
I1109
sg3
g8
sg5
g6
sg7
g8
sg9
S'B'
p138
sg11
(lp139
(lp140
S'chords/2-1'
p141
aI207
aa(lp142
S'chords/2-2'
p143
aI164
aa(lp144
S'chords/2-3'
p145
aI157
aa(lp146
S'chords/2-4'
p147
aI139
aa(lp148
S'chords/2-5-2'
p149
aI148
aa(lp150
S'chords/2-6'
p151
aI151
aa(lp152
S'chords/2-6'
p153
aI143
aasg27
g28
sg29
g30
sg31
g32
sg33
I702
sg34
g35
sa(dp154
g2
I1150
sg3
g4
sg5
g37
sg7
g8
sg9
g4
sg11
(lp155
(lp156
S'fillers/1-1'
p157
aI197
aa(lp158
S'fillers/1-2'
p159
aI156
aa(lp160
S'fillers/1-3-1'
p161
aI149
aa(lp162
S'fillers/1-4'
p163
aI156
aa(lp164
S'fillers/1-5'
p165
aI153
aa(lp166
S'fillers/1-6'
p167
aI160
aa(lp168
S'fillers/1-7'
p169
aI179
aasg27
g28
sg29
g53
sg31
g32
sg33
I556
sg34
g35
sa(dp170
g2
I1891
sg3
g121
sg5
g6
sg7
g8
sg9
g138
sg11
(lp171
(lp172
S'chords/5-1'
p173
aI244
aa(lp174
S'chords/5-2'
p175
aI190
aa(lp176
S'chords/5-3'
p177
aI183
aa(lp178
S'chords/5-4'
p179
aI213
aa(lp180
S'chords/5-5-2'
p181
aI175
aa(lp182
S'chords/5-6'
p183
aI495
aa(lp184
S'chords/5-6'
p185
aI391
aasg27
g28
sg29
g30
sg31
g32
sg33
I647
sg34
g35
sa(dp186
g2
I2087
sg3
g8
sg5
g6
sg7
g8
sg9
g104
sg11
(lp187
(lp188
S'chords/2-1'
p189
aI203
aa(lp190
S'chords/2-2'
p191
aI189
aa(lp192
S'chords/2-3'
p193
aI210
aa(lp194
S'chords/2-4'
p195
aI252
aa(lp196
S'chords/2-5-1'
p197
aI258
aa(lp198
S'chords/2-6'
p199
aI302
aa(lp200
S'chords/2-6'
p201
aI673
aasg27
g28
sg29
g30
sg31
g32
sg33
I633
sg34
g35
sa(dp202
g2
I1418
sg3
g4
sg5
g37
sg7
g8
sg9
g55
sg11
(lp203
(lp204
S'fillers/1-1'
p205
aI213
aa(lp206
S'fillers/1-2'
p207
aI200
aa(lp208
S'fillers/1-3-3'
p209
aI199
aa(lp210
S'fillers/1-4'
p211
aI209
aa(lp212
S'fillers/1-5'
p213
aI213
aa(lp214
S'fillers/1-6'
p215
aI206
aa(lp216
S'fillers/1-7'
p217
aI178
aasg27
g28
sg29
g53
sg31
g32
sg33
I626
sg34
g35
sa(dp218
g2
I1613
sg3
S'4'
p219
sg5
g6
sg7
g8
sg9
g138
sg11
(lp220
(lp221
S'chords/4-1'
p222
aI217
aa(lp223
S'chords/4-2'
p224
aI180
aa(lp225
S'chords/4-3'
p226
aI172
aa(lp227
S'chords/4-4'
p228
aI202
aa(lp229
S'chords/4-5-2'
p230
aI193
aa(lp231
S'chords/4-6'
p232
aI186
aa(lp233
S'chords/4-6'
p234
aI463
aasg27
g28
sg29
g30
sg31
g32
sg33
I713
sg34
g35
sa(dp235
g2
I2533
sg3
g219
sg5
g6
sg7
g8
sg9
g104
sg11
(lp236
(lp237
S'chords/4-1'
p238
aI215
aa(lp239
S'chords/4-2'
p240
aI240
aa(lp241
S'chords/4-3'
p242
aI271
aa(lp243
S'chords/4-4'
p244
aI346
aa(lp245
S'chords/4-5-1'
p246
aI389
aa(lp247
S'chords/4-6'
p248
aI644
aa(lp249
S'chords/4-6'
p250
aI428
aasg27
g28
sg29
g30
sg31
g32
sg33
I692
sg34
g35
sa(dp251
g2
I3185
sg3
g121
sg5
g6
sg7
g8
sg9
g104
sg11
(lp252
(lp253
S'chords/5-1'
p254
aI452
aa(lp255
S'chords/5-2'
p256
aI791
aa(lp257
S'chords/5-3'
p258
aI341
aa(lp259
S'chords/5-4'
p260
aI383
aa(lp261
S'chords/5-5-1'
p262
aI403
aa(lp263
S'chords/5-6'
p264
aI365
aa(lp265
S'chords/5-6'
p266
aI450
aasg27
g28
sg29
g30
sg31
g32
sg33
I569
sg34
g35
sa(dp267
g2
I2118
sg3
S'0'
p268
sg5
g6
sg7
g8
sg9
g138
sg11
(lp269
(lp270
S'chords/0-1'
p271
aI247
aa(lp272
S'chords/0-2'
p273
aI289
aa(lp274
S'chords/0-3'
p275
aI320
aa(lp276
S'chords/0-4'
p277
aI273
aa(lp278
S'chords/0-5-2'
p279
aI281
aa(lp280
S'chords/0-6'
p281
aI291
aa(lp282
S'chords/0-6'
p283
aI417
aasg27
g28
sg29
g30
sg31
g32
sg33
I646
sg34
g35
sa(dp284
g2
I3819
sg3
g268
sg5
g6
sg7
g8
sg9
g104
sg11
(lp285
(lp286
S'chords/0-1'
p287
aI224
aa(lp288
S'chords/0-2'
p289
aI198
aa(lp290
S'chords/0-3'
p291
aI160
aa(lp292
S'chords/0-4'
p293
aI2230
aa(lp294
S'chords/0-5-1'
p295
aI267
aa(lp296
S'chords/0-6'
p297
aI346
aa(lp298
S'chords/0-6'
p299
aI394
aasg27
g28
sg29
g30
sg31
g32
sg33
I561
sg34
g35
sa(dp300
g2
I2239
sg3
g4
sg5
g37
sg7
g8
sg9
g8
sg11
(lp301
(lp302
S'fillers/1-1'
p303
aI231
aa(lp304
S'fillers/1-2'
p305
aI310
aa(lp306
S'fillers/1-3-2'
p307
aI314
aa(lp308
S'fillers/1-4'
p309
aI290
aa(lp310
S'fillers/1-5'
p311
aI343
aa(lp312
S'fillers/1-6'
p313
aI365
aa(lp314
S'fillers/1-7'
p315
aI386
aasg27
g28
sg29
g53
sg31
g32
sg33
I572
sg34
g35
sa(dp316
g2
I2394
sg3
g4
sg5
g6
sg7
g8
sg9
g104
sg11
(lp317
(lp318
S'chords/1-1'
p319
aI225
aa(lp320
S'chords/1-2'
p321
aI337
aa(lp322
S'chords/1-3'
p323
aI316
aa(lp324
S'chords/1-4'
p325
aI283
aa(lp326
S'chords/1-5-1'
p327
aI278
aa(lp328
S'chords/1-6'
p329
aI272
aa(lp330
S'chords/1-6'
p331
aI683
aasg27
g28
sg29
g30
sg31
g32
sg33
I581
sg34
g35
sa(dp332
g2
I2531
sg3
g8
sg5
g37
sg7
g8
sg9
g55
sg11
(lp333
(lp334
S'fillers/2-1'
p335
aI249
aa(lp336
S'fillers/2-2'
p337
aI269
aa(lp338
S'fillers/2-3-3'
p339
aI311
aa(lp340
S'fillers/2-4'
p341
aI397
aa(lp342
S'fillers/2-5'
p343
aI424
aa(lp344
S'fillers/2-6'
p345
aI429
aa(lp346
S'fillers/2-7'
p347
aI452
aasg27
g28
sg29
g53
sg31
g32
sg33
I501
sg34
g35
sa(dp348
g2
I2440
sg3
g55
sg5
g6
sg7
g8
sg9
g10
sg11
(lp349
(lp350
S'chords/3-1'
p351
aI234
aa(lp352
S'chords/3-2'
p353
aI203
aa(lp354
S'chords/3-3'
p355
aI207
aa(lp356
S'chords/3-4'
p357
aI279
aa(lp358
S'chords/3-5-3'
p359
aI374
aa(lp360
S'chords/3-6'
p361
aI449
aa(lp362
S'chords/3-6'
p363
aI694
aasg27
g28
sg29
g30
sg31
g32
sg33
I617
sg34
g35
sa(dp364
g2
I2349
sg3
g4
sg5
g6
sg7
g8
sg9
g138
sg11
(lp365
(lp366
S'chords/1-1'
p367
aI220
aa(lp368
S'chords/1-2'
p369
aI202
aa(lp370
S'chords/1-3'
p371
aI224
aa(lp372
S'chords/1-4'
p373
aI254
aa(lp374
S'chords/1-5-2'
p375
aI275
aa(lp376
S'chords/1-6'
p377
aI350
aa(lp378
S'chords/1-6'
p379
aI824
aasg27
g28
sg29
g30
sg31
g32
sg33
I659
sg34
g35
sa(dp380
g2
I3158
sg3
g8
sg5
g37
sg7
g8
sg9
g8
sg11
(lp381
(lp382
S'fillers/2-1'
p383
aI388
aa(lp384
S'fillers/2-2'
p385
aI422
aa(lp386
S'fillers/2-3-2'
p387
aI533
aa(lp388
S'fillers/2-4'
p389
aI487
aa(lp390
S'fillers/2-5'
p391
aI469
aa(lp392
S'fillers/2-6'
p393
aI400
aa(lp394
S'fillers/2-7'
p395
aI459
aasg27
g28
sg29
g53
sg31
g32
sg33
I551
sg34
g35
sa(dp396
g2
I1593
sg3
g55
sg5
g37
sg7
g8
sg9
g8
sg11
(lp397
(lp398
S'fillers/3-1'
p399
aI218
aa(lp400
S'fillers/3-2'
p401
aI173
aa(lp402
S'fillers/3-3-2'
p403
aI198
aa(lp404
S'fillers/3-4'
p405
aI191
aa(lp406
S'fillers/3-5'
p407
aI191
aa(lp408
S'fillers/3-6'
p409
aI323
aa(lp410
S'fillers/3-7'
p411
aI299
aasg27
g28
sg29
g53
sg31
g32
sg33
I550
sg34
g35
sa(dp412
g2
I2211
sg3
g55
sg5
g6
sg7
g8
sg9
g138
sg11
(lp413
(lp414
S'chords/3-1'
p415
aI187
aa(lp416
S'chords/3-2'
p417
aI163
aa(lp418
S'chords/3-3'
p419
aI311
aa(lp420
S'chords/3-4'
p421
aI304
aa(lp422
S'chords/3-5-2'
p423
aI290
aa(lp424
S'chords/3-6'
p425
aI302
aa(lp426
S'chords/3-6'
p427
aI654
aasg27
g28
sg29
g30
sg31
g32
sg33
I528
sg34
g35
sa(dp428
g2
I1918
sg3
g268
sg5
g6
sg7
g8
sg9
g10
sg11
(lp429
(lp430
S'chords/0-1'
p431
aI219
aa(lp432
S'chords/0-2'
p433
aI197
aa(lp434
S'chords/0-3'
p435
aI257
aa(lp436
S'chords/0-4'
p437
aI268
aa(lp438
S'chords/0-5-3'
p439
aI267
aa(lp440
S'chords/0-6'
p441
aI332
aa(lp442
S'chords/0-6'
p443
aI378
aasg27
g28
sg29
g30
sg31
g32
sg33
I493
sg34
g35
sa(dp444
g2
I1575
sg3
g219
sg5
g6
sg7
g8
sg9
g10
sg11
(lp445
(lp446
S'chords/4-1'
p447
aI227
aa(lp448
S'chords/4-2'
p449
aI206
aa(lp450
S'chords/4-3'
p451
aI198
aa(lp452
S'chords/4-4'
p453
aI194
aa(lp454
S'chords/4-5-3'
p455
aI204
aa(lp456
S'chords/4-6'
p457
aI198
aa(lp458
S'chords/4-6'
p459
aI348
aasg27
g28
sg29
g30
sg31
g32
sg33
I590
sg34
g35
sa.